
rtarget:     file format elf64-x86-64


Disassembly of section .init:

0000000000400c48 <_init>:
  400c48:	48 83 ec 08          	sub    $0x8,%rsp
  400c4c:	48 8b 05 a5 43 20 00 	mov    0x2043a5(%rip),%rax        # 604ff8 <_DYNAMIC+0x1d0>
  400c53:	48 85 c0             	test   %rax,%rax
  400c56:	74 05                	je     400c5d <_init+0x15>
  400c58:	e8 43 02 00 00       	callq  400ea0 <socket@plt+0x10>
  400c5d:	48 83 c4 08          	add    $0x8,%rsp
  400c61:	c3                   	retq   

Disassembly of section .plt:

0000000000400c70 <strcasecmp@plt-0x10>:
  400c70:	ff 35 92 43 20 00    	pushq  0x204392(%rip)        # 605008 <_GLOBAL_OFFSET_TABLE_+0x8>
  400c76:	ff 25 94 43 20 00    	jmpq   *0x204394(%rip)        # 605010 <_GLOBAL_OFFSET_TABLE_+0x10>
  400c7c:	0f 1f 40 00          	nopl   0x0(%rax)

0000000000400c80 <strcasecmp@plt>:
  400c80:	ff 25 92 43 20 00    	jmpq   *0x204392(%rip)        # 605018 <_GLOBAL_OFFSET_TABLE_+0x18>
  400c86:	68 00 00 00 00       	pushq  $0x0
  400c8b:	e9 e0 ff ff ff       	jmpq   400c70 <_init+0x28>

0000000000400c90 <__errno_location@plt>:
  400c90:	ff 25 8a 43 20 00    	jmpq   *0x20438a(%rip)        # 605020 <_GLOBAL_OFFSET_TABLE_+0x20>
  400c96:	68 01 00 00 00       	pushq  $0x1
  400c9b:	e9 d0 ff ff ff       	jmpq   400c70 <_init+0x28>

0000000000400ca0 <srandom@plt>:
  400ca0:	ff 25 82 43 20 00    	jmpq   *0x204382(%rip)        # 605028 <_GLOBAL_OFFSET_TABLE_+0x28>
  400ca6:	68 02 00 00 00       	pushq  $0x2
  400cab:	e9 c0 ff ff ff       	jmpq   400c70 <_init+0x28>

0000000000400cb0 <strncmp@plt>:
  400cb0:	ff 25 7a 43 20 00    	jmpq   *0x20437a(%rip)        # 605030 <_GLOBAL_OFFSET_TABLE_+0x30>
  400cb6:	68 03 00 00 00       	pushq  $0x3
  400cbb:	e9 b0 ff ff ff       	jmpq   400c70 <_init+0x28>

0000000000400cc0 <strcpy@plt>:
  400cc0:	ff 25 72 43 20 00    	jmpq   *0x204372(%rip)        # 605038 <_GLOBAL_OFFSET_TABLE_+0x38>
  400cc6:	68 04 00 00 00       	pushq  $0x4
  400ccb:	e9 a0 ff ff ff       	jmpq   400c70 <_init+0x28>

0000000000400cd0 <puts@plt>:
  400cd0:	ff 25 6a 43 20 00    	jmpq   *0x20436a(%rip)        # 605040 <_GLOBAL_OFFSET_TABLE_+0x40>
  400cd6:	68 05 00 00 00       	pushq  $0x5
  400cdb:	e9 90 ff ff ff       	jmpq   400c70 <_init+0x28>

0000000000400ce0 <write@plt>:
  400ce0:	ff 25 62 43 20 00    	jmpq   *0x204362(%rip)        # 605048 <_GLOBAL_OFFSET_TABLE_+0x48>
  400ce6:	68 06 00 00 00       	pushq  $0x6
  400ceb:	e9 80 ff ff ff       	jmpq   400c70 <_init+0x28>

0000000000400cf0 <__stack_chk_fail@plt>:
  400cf0:	ff 25 5a 43 20 00    	jmpq   *0x20435a(%rip)        # 605050 <_GLOBAL_OFFSET_TABLE_+0x50>
  400cf6:	68 07 00 00 00       	pushq  $0x7
  400cfb:	e9 70 ff ff ff       	jmpq   400c70 <_init+0x28>

0000000000400d00 <mmap@plt>:
  400d00:	ff 25 52 43 20 00    	jmpq   *0x204352(%rip)        # 605058 <_GLOBAL_OFFSET_TABLE_+0x58>
  400d06:	68 08 00 00 00       	pushq  $0x8
  400d0b:	e9 60 ff ff ff       	jmpq   400c70 <_init+0x28>

0000000000400d10 <memset@plt>:
  400d10:	ff 25 4a 43 20 00    	jmpq   *0x20434a(%rip)        # 605060 <_GLOBAL_OFFSET_TABLE_+0x60>
  400d16:	68 09 00 00 00       	pushq  $0x9
  400d1b:	e9 50 ff ff ff       	jmpq   400c70 <_init+0x28>

0000000000400d20 <alarm@plt>:
  400d20:	ff 25 42 43 20 00    	jmpq   *0x204342(%rip)        # 605068 <_GLOBAL_OFFSET_TABLE_+0x68>
  400d26:	68 0a 00 00 00       	pushq  $0xa
  400d2b:	e9 40 ff ff ff       	jmpq   400c70 <_init+0x28>

0000000000400d30 <close@plt>:
  400d30:	ff 25 3a 43 20 00    	jmpq   *0x20433a(%rip)        # 605070 <_GLOBAL_OFFSET_TABLE_+0x70>
  400d36:	68 0b 00 00 00       	pushq  $0xb
  400d3b:	e9 30 ff ff ff       	jmpq   400c70 <_init+0x28>

0000000000400d40 <read@plt>:
  400d40:	ff 25 32 43 20 00    	jmpq   *0x204332(%rip)        # 605078 <_GLOBAL_OFFSET_TABLE_+0x78>
  400d46:	68 0c 00 00 00       	pushq  $0xc
  400d4b:	e9 20 ff ff ff       	jmpq   400c70 <_init+0x28>

0000000000400d50 <__libc_start_main@plt>:
  400d50:	ff 25 2a 43 20 00    	jmpq   *0x20432a(%rip)        # 605080 <_GLOBAL_OFFSET_TABLE_+0x80>
  400d56:	68 0d 00 00 00       	pushq  $0xd
  400d5b:	e9 10 ff ff ff       	jmpq   400c70 <_init+0x28>

0000000000400d60 <signal@plt>:
  400d60:	ff 25 22 43 20 00    	jmpq   *0x204322(%rip)        # 605088 <_GLOBAL_OFFSET_TABLE_+0x88>
  400d66:	68 0e 00 00 00       	pushq  $0xe
  400d6b:	e9 00 ff ff ff       	jmpq   400c70 <_init+0x28>

0000000000400d70 <gethostbyname@plt>:
  400d70:	ff 25 1a 43 20 00    	jmpq   *0x20431a(%rip)        # 605090 <_GLOBAL_OFFSET_TABLE_+0x90>
  400d76:	68 0f 00 00 00       	pushq  $0xf
  400d7b:	e9 f0 fe ff ff       	jmpq   400c70 <_init+0x28>

0000000000400d80 <__memmove_chk@plt>:
  400d80:	ff 25 12 43 20 00    	jmpq   *0x204312(%rip)        # 605098 <_GLOBAL_OFFSET_TABLE_+0x98>
  400d86:	68 10 00 00 00       	pushq  $0x10
  400d8b:	e9 e0 fe ff ff       	jmpq   400c70 <_init+0x28>

0000000000400d90 <strtol@plt>:
  400d90:	ff 25 0a 43 20 00    	jmpq   *0x20430a(%rip)        # 6050a0 <_GLOBAL_OFFSET_TABLE_+0xa0>
  400d96:	68 11 00 00 00       	pushq  $0x11
  400d9b:	e9 d0 fe ff ff       	jmpq   400c70 <_init+0x28>

0000000000400da0 <memcpy@plt>:
  400da0:	ff 25 02 43 20 00    	jmpq   *0x204302(%rip)        # 6050a8 <_GLOBAL_OFFSET_TABLE_+0xa8>
  400da6:	68 12 00 00 00       	pushq  $0x12
  400dab:	e9 c0 fe ff ff       	jmpq   400c70 <_init+0x28>

0000000000400db0 <time@plt>:
  400db0:	ff 25 fa 42 20 00    	jmpq   *0x2042fa(%rip)        # 6050b0 <_GLOBAL_OFFSET_TABLE_+0xb0>
  400db6:	68 13 00 00 00       	pushq  $0x13
  400dbb:	e9 b0 fe ff ff       	jmpq   400c70 <_init+0x28>

0000000000400dc0 <random@plt>:
  400dc0:	ff 25 f2 42 20 00    	jmpq   *0x2042f2(%rip)        # 6050b8 <_GLOBAL_OFFSET_TABLE_+0xb8>
  400dc6:	68 14 00 00 00       	pushq  $0x14
  400dcb:	e9 a0 fe ff ff       	jmpq   400c70 <_init+0x28>

0000000000400dd0 <_IO_getc@plt>:
  400dd0:	ff 25 ea 42 20 00    	jmpq   *0x2042ea(%rip)        # 6050c0 <_GLOBAL_OFFSET_TABLE_+0xc0>
  400dd6:	68 15 00 00 00       	pushq  $0x15
  400ddb:	e9 90 fe ff ff       	jmpq   400c70 <_init+0x28>

0000000000400de0 <__isoc99_sscanf@plt>:
  400de0:	ff 25 e2 42 20 00    	jmpq   *0x2042e2(%rip)        # 6050c8 <_GLOBAL_OFFSET_TABLE_+0xc8>
  400de6:	68 16 00 00 00       	pushq  $0x16
  400deb:	e9 80 fe ff ff       	jmpq   400c70 <_init+0x28>

0000000000400df0 <munmap@plt>:
  400df0:	ff 25 da 42 20 00    	jmpq   *0x2042da(%rip)        # 6050d0 <_GLOBAL_OFFSET_TABLE_+0xd0>
  400df6:	68 17 00 00 00       	pushq  $0x17
  400dfb:	e9 70 fe ff ff       	jmpq   400c70 <_init+0x28>

0000000000400e00 <__printf_chk@plt>:
  400e00:	ff 25 d2 42 20 00    	jmpq   *0x2042d2(%rip)        # 6050d8 <_GLOBAL_OFFSET_TABLE_+0xd8>
  400e06:	68 18 00 00 00       	pushq  $0x18
  400e0b:	e9 60 fe ff ff       	jmpq   400c70 <_init+0x28>

0000000000400e10 <fopen@plt>:
  400e10:	ff 25 ca 42 20 00    	jmpq   *0x2042ca(%rip)        # 6050e0 <_GLOBAL_OFFSET_TABLE_+0xe0>
  400e16:	68 19 00 00 00       	pushq  $0x19
  400e1b:	e9 50 fe ff ff       	jmpq   400c70 <_init+0x28>

0000000000400e20 <getopt@plt>:
  400e20:	ff 25 c2 42 20 00    	jmpq   *0x2042c2(%rip)        # 6050e8 <_GLOBAL_OFFSET_TABLE_+0xe8>
  400e26:	68 1a 00 00 00       	pushq  $0x1a
  400e2b:	e9 40 fe ff ff       	jmpq   400c70 <_init+0x28>

0000000000400e30 <strtoul@plt>:
  400e30:	ff 25 ba 42 20 00    	jmpq   *0x2042ba(%rip)        # 6050f0 <_GLOBAL_OFFSET_TABLE_+0xf0>
  400e36:	68 1b 00 00 00       	pushq  $0x1b
  400e3b:	e9 30 fe ff ff       	jmpq   400c70 <_init+0x28>

0000000000400e40 <gethostname@plt>:
  400e40:	ff 25 b2 42 20 00    	jmpq   *0x2042b2(%rip)        # 6050f8 <_GLOBAL_OFFSET_TABLE_+0xf8>
  400e46:	68 1c 00 00 00       	pushq  $0x1c
  400e4b:	e9 20 fe ff ff       	jmpq   400c70 <_init+0x28>

0000000000400e50 <exit@plt>:
  400e50:	ff 25 aa 42 20 00    	jmpq   *0x2042aa(%rip)        # 605100 <_GLOBAL_OFFSET_TABLE_+0x100>
  400e56:	68 1d 00 00 00       	pushq  $0x1d
  400e5b:	e9 10 fe ff ff       	jmpq   400c70 <_init+0x28>

0000000000400e60 <connect@plt>:
  400e60:	ff 25 a2 42 20 00    	jmpq   *0x2042a2(%rip)        # 605108 <_GLOBAL_OFFSET_TABLE_+0x108>
  400e66:	68 1e 00 00 00       	pushq  $0x1e
  400e6b:	e9 00 fe ff ff       	jmpq   400c70 <_init+0x28>

0000000000400e70 <__fprintf_chk@plt>:
  400e70:	ff 25 9a 42 20 00    	jmpq   *0x20429a(%rip)        # 605110 <_GLOBAL_OFFSET_TABLE_+0x110>
  400e76:	68 1f 00 00 00       	pushq  $0x1f
  400e7b:	e9 f0 fd ff ff       	jmpq   400c70 <_init+0x28>

0000000000400e80 <__sprintf_chk@plt>:
  400e80:	ff 25 92 42 20 00    	jmpq   *0x204292(%rip)        # 605118 <_GLOBAL_OFFSET_TABLE_+0x118>
  400e86:	68 20 00 00 00       	pushq  $0x20
  400e8b:	e9 e0 fd ff ff       	jmpq   400c70 <_init+0x28>

0000000000400e90 <socket@plt>:
  400e90:	ff 25 8a 42 20 00    	jmpq   *0x20428a(%rip)        # 605120 <_GLOBAL_OFFSET_TABLE_+0x120>
  400e96:	68 21 00 00 00       	pushq  $0x21
  400e9b:	e9 d0 fd ff ff       	jmpq   400c70 <_init+0x28>

Disassembly of section .plt.got:

0000000000400ea0 <.plt.got>:
  400ea0:	ff 25 52 41 20 00    	jmpq   *0x204152(%rip)        # 604ff8 <_DYNAMIC+0x1d0>
  400ea6:	66 90                	xchg   %ax,%ax

Disassembly of section .text:

0000000000400eb0 <_start>:
  400eb0:	31 ed                	xor    %ebp,%ebp
  400eb2:	49 89 d1             	mov    %rdx,%r9
  400eb5:	5e                   	pop    %rsi
  400eb6:	48 89 e2             	mov    %rsp,%rdx
  400eb9:	48 83 e4 f0          	and    $0xfffffffffffffff0,%rsp
  400ebd:	50                   	push   %rax
  400ebe:	54                   	push   %rsp
  400ebf:	49 c7 c0 b0 2f 40 00 	mov    $0x402fb0,%r8
  400ec6:	48 c7 c1 40 2f 40 00 	mov    $0x402f40,%rcx
  400ecd:	48 c7 c7 b5 11 40 00 	mov    $0x4011b5,%rdi
  400ed4:	e8 77 fe ff ff       	callq  400d50 <__libc_start_main@plt>
  400ed9:	f4                   	hlt    
  400eda:	66 0f 1f 44 00 00    	nopw   0x0(%rax,%rax,1)

0000000000400ee0 <deregister_tm_clones>:
  400ee0:	b8 b7 54 60 00       	mov    $0x6054b7,%eax
  400ee5:	55                   	push   %rbp
  400ee6:	48 2d b0 54 60 00    	sub    $0x6054b0,%rax
  400eec:	48 83 f8 0e          	cmp    $0xe,%rax
  400ef0:	48 89 e5             	mov    %rsp,%rbp
  400ef3:	76 1b                	jbe    400f10 <deregister_tm_clones+0x30>
  400ef5:	b8 00 00 00 00       	mov    $0x0,%eax
  400efa:	48 85 c0             	test   %rax,%rax
  400efd:	74 11                	je     400f10 <deregister_tm_clones+0x30>
  400eff:	5d                   	pop    %rbp
  400f00:	bf b0 54 60 00       	mov    $0x6054b0,%edi
  400f05:	ff e0                	jmpq   *%rax
  400f07:	66 0f 1f 84 00 00 00 	nopw   0x0(%rax,%rax,1)
  400f0e:	00 00 
  400f10:	5d                   	pop    %rbp
  400f11:	c3                   	retq   
  400f12:	0f 1f 40 00          	nopl   0x0(%rax)
  400f16:	66 2e 0f 1f 84 00 00 	nopw   %cs:0x0(%rax,%rax,1)
  400f1d:	00 00 00 

0000000000400f20 <register_tm_clones>:
  400f20:	be b0 54 60 00       	mov    $0x6054b0,%esi
  400f25:	55                   	push   %rbp
  400f26:	48 81 ee b0 54 60 00 	sub    $0x6054b0,%rsi
  400f2d:	48 c1 fe 03          	sar    $0x3,%rsi
  400f31:	48 89 e5             	mov    %rsp,%rbp
  400f34:	48 89 f0             	mov    %rsi,%rax
  400f37:	48 c1 e8 3f          	shr    $0x3f,%rax
  400f3b:	48 01 c6             	add    %rax,%rsi
  400f3e:	48 d1 fe             	sar    %rsi
  400f41:	74 15                	je     400f58 <register_tm_clones+0x38>
  400f43:	b8 00 00 00 00       	mov    $0x0,%eax
  400f48:	48 85 c0             	test   %rax,%rax
  400f4b:	74 0b                	je     400f58 <register_tm_clones+0x38>
  400f4d:	5d                   	pop    %rbp
  400f4e:	bf b0 54 60 00       	mov    $0x6054b0,%edi
  400f53:	ff e0                	jmpq   *%rax
  400f55:	0f 1f 00             	nopl   (%rax)
  400f58:	5d                   	pop    %rbp
  400f59:	c3                   	retq   
  400f5a:	66 0f 1f 44 00 00    	nopw   0x0(%rax,%rax,1)

0000000000400f60 <__do_global_dtors_aux>:
  400f60:	80 3d 81 45 20 00 00 	cmpb   $0x0,0x204581(%rip)        # 6054e8 <completed.7585>
  400f67:	75 11                	jne    400f7a <__do_global_dtors_aux+0x1a>
  400f69:	55                   	push   %rbp
  400f6a:	48 89 e5             	mov    %rsp,%rbp
  400f6d:	e8 6e ff ff ff       	callq  400ee0 <deregister_tm_clones>
  400f72:	5d                   	pop    %rbp
  400f73:	c6 05 6e 45 20 00 01 	movb   $0x1,0x20456e(%rip)        # 6054e8 <completed.7585>
  400f7a:	f3 c3                	repz retq 
  400f7c:	0f 1f 40 00          	nopl   0x0(%rax)

0000000000400f80 <frame_dummy>:
  400f80:	bf 20 4e 60 00       	mov    $0x604e20,%edi
  400f85:	48 83 3f 00          	cmpq   $0x0,(%rdi)
  400f89:	75 05                	jne    400f90 <frame_dummy+0x10>
  400f8b:	eb 93                	jmp    400f20 <register_tm_clones>
  400f8d:	0f 1f 00             	nopl   (%rax)
  400f90:	b8 00 00 00 00       	mov    $0x0,%eax
  400f95:	48 85 c0             	test   %rax,%rax
  400f98:	74 f1                	je     400f8b <frame_dummy+0xb>
  400f9a:	55                   	push   %rbp
  400f9b:	48 89 e5             	mov    %rsp,%rbp
  400f9e:	ff d0                	callq  *%rax
  400fa0:	5d                   	pop    %rbp
  400fa1:	e9 7a ff ff ff       	jmpq   400f20 <register_tm_clones>

0000000000400fa6 <usage>:
  400fa6:	48 83 ec 08          	sub    $0x8,%rsp
  400faa:	48 89 fa             	mov    %rdi,%rdx
  400fad:	83 3d 74 45 20 00 00 	cmpl   $0x0,0x204574(%rip)        # 605528 <is_checker>
  400fb4:	74 3e                	je     400ff4 <usage+0x4e>
  400fb6:	be c8 2f 40 00       	mov    $0x402fc8,%esi
  400fbb:	bf 01 00 00 00       	mov    $0x1,%edi
  400fc0:	b8 00 00 00 00       	mov    $0x0,%eax
  400fc5:	e8 36 fe ff ff       	callq  400e00 <__printf_chk@plt>
  400fca:	bf 00 30 40 00       	mov    $0x403000,%edi
  400fcf:	e8 fc fc ff ff       	callq  400cd0 <puts@plt>
  400fd4:	bf 78 31 40 00       	mov    $0x403178,%edi
  400fd9:	e8 f2 fc ff ff       	callq  400cd0 <puts@plt>
  400fde:	bf 28 30 40 00       	mov    $0x403028,%edi
  400fe3:	e8 e8 fc ff ff       	callq  400cd0 <puts@plt>
  400fe8:	bf 92 31 40 00       	mov    $0x403192,%edi
  400fed:	e8 de fc ff ff       	callq  400cd0 <puts@plt>
  400ff2:	eb 32                	jmp    401026 <usage+0x80>
  400ff4:	be ae 31 40 00       	mov    $0x4031ae,%esi
  400ff9:	bf 01 00 00 00       	mov    $0x1,%edi
  400ffe:	b8 00 00 00 00       	mov    $0x0,%eax
  401003:	e8 f8 fd ff ff       	callq  400e00 <__printf_chk@plt>
  401008:	bf 50 30 40 00       	mov    $0x403050,%edi
  40100d:	e8 be fc ff ff       	callq  400cd0 <puts@plt>
  401012:	bf 78 30 40 00       	mov    $0x403078,%edi
  401017:	e8 b4 fc ff ff       	callq  400cd0 <puts@plt>
  40101c:	bf cc 31 40 00       	mov    $0x4031cc,%edi
  401021:	e8 aa fc ff ff       	callq  400cd0 <puts@plt>
  401026:	bf 00 00 00 00       	mov    $0x0,%edi
  40102b:	e8 20 fe ff ff       	callq  400e50 <exit@plt>

0000000000401030 <initialize_target>:
  401030:	55                   	push   %rbp
  401031:	53                   	push   %rbx
  401032:	48 81 ec 18 21 00 00 	sub    $0x2118,%rsp
  401039:	89 f5                	mov    %esi,%ebp
  40103b:	64 48 8b 04 25 28 00 	mov    %fs:0x28,%rax
  401042:	00 00 
  401044:	48 89 84 24 08 21 00 	mov    %rax,0x2108(%rsp)
  40104b:	00 
  40104c:	31 c0                	xor    %eax,%eax
  40104e:	89 3d c4 44 20 00    	mov    %edi,0x2044c4(%rip)        # 605518 <check_level>
  401054:	8b 3d 0e 41 20 00    	mov    0x20410e(%rip),%edi        # 605168 <target_id>
  40105a:	e8 c0 1e 00 00       	callq  402f1f <gencookie>
  40105f:	89 05 bf 44 20 00    	mov    %eax,0x2044bf(%rip)        # 605524 <cookie>
  401065:	89 c7                	mov    %eax,%edi
  401067:	e8 b3 1e 00 00       	callq  402f1f <gencookie>
  40106c:	89 05 ae 44 20 00    	mov    %eax,0x2044ae(%rip)        # 605520 <authkey>
  401072:	8b 05 f0 40 20 00    	mov    0x2040f0(%rip),%eax        # 605168 <target_id>
  401078:	8d 78 01             	lea    0x1(%rax),%edi
  40107b:	e8 20 fc ff ff       	callq  400ca0 <srandom@plt>
  401080:	e8 3b fd ff ff       	callq  400dc0 <random@plt>
  401085:	89 c7                	mov    %eax,%edi
  401087:	e8 03 03 00 00       	callq  40138f <scramble>
  40108c:	89 c3                	mov    %eax,%ebx
  40108e:	85 ed                	test   %ebp,%ebp
  401090:	74 18                	je     4010aa <initialize_target+0x7a>
  401092:	bf 00 00 00 00       	mov    $0x0,%edi
  401097:	e8 14 fd ff ff       	callq  400db0 <time@plt>
  40109c:	89 c7                	mov    %eax,%edi
  40109e:	e8 fd fb ff ff       	callq  400ca0 <srandom@plt>
  4010a3:	e8 18 fd ff ff       	callq  400dc0 <random@plt>
  4010a8:	eb 05                	jmp    4010af <initialize_target+0x7f>
  4010aa:	b8 00 00 00 00       	mov    $0x0,%eax
  4010af:	01 c3                	add    %eax,%ebx
  4010b1:	0f b7 db             	movzwl %bx,%ebx
  4010b4:	8d 04 dd 00 01 00 00 	lea    0x100(,%rbx,8),%eax
  4010bb:	89 c0                	mov    %eax,%eax
  4010bd:	48 89 05 dc 43 20 00 	mov    %rax,0x2043dc(%rip)        # 6054a0 <buf_offset>
  4010c4:	c6 05 7d 50 20 00 72 	movb   $0x72,0x20507d(%rip)        # 606148 <target_prefix>
  4010cb:	83 3d d6 43 20 00 00 	cmpl   $0x0,0x2043d6(%rip)        # 6054a8 <notify>
  4010d2:	0f 84 bb 00 00 00    	je     401193 <initialize_target+0x163>
  4010d8:	83 3d 49 44 20 00 00 	cmpl   $0x0,0x204449(%rip)        # 605528 <is_checker>
  4010df:	0f 85 ae 00 00 00    	jne    401193 <initialize_target+0x163>
  4010e5:	be 00 01 00 00       	mov    $0x100,%esi
  4010ea:	48 89 e7             	mov    %rsp,%rdi
  4010ed:	e8 4e fd ff ff       	callq  400e40 <gethostname@plt>
  4010f2:	85 c0                	test   %eax,%eax
  4010f4:	74 25                	je     40111b <initialize_target+0xeb>
  4010f6:	bf a8 30 40 00       	mov    $0x4030a8,%edi
  4010fb:	e8 d0 fb ff ff       	callq  400cd0 <puts@plt>
  401100:	bf 08 00 00 00       	mov    $0x8,%edi
  401105:	e8 46 fd ff ff       	callq  400e50 <exit@plt>
  40110a:	48 89 e6             	mov    %rsp,%rsi
  40110d:	e8 6e fb ff ff       	callq  400c80 <strcasecmp@plt>
  401112:	85 c0                	test   %eax,%eax
  401114:	74 21                	je     401137 <initialize_target+0x107>
  401116:	83 c3 01             	add    $0x1,%ebx
  401119:	eb 05                	jmp    401120 <initialize_target+0xf0>
  40111b:	bb 00 00 00 00       	mov    $0x0,%ebx
  401120:	48 63 c3             	movslq %ebx,%rax
  401123:	48 8b 3c c5 80 51 60 	mov    0x605180(,%rax,8),%rdi
  40112a:	00 
  40112b:	48 85 ff             	test   %rdi,%rdi
  40112e:	75 da                	jne    40110a <initialize_target+0xda>
  401130:	b8 00 00 00 00       	mov    $0x0,%eax
  401135:	eb 05                	jmp    40113c <initialize_target+0x10c>
  401137:	b8 01 00 00 00       	mov    $0x1,%eax
  40113c:	85 c0                	test   %eax,%eax
  40113e:	75 1c                	jne    40115c <initialize_target+0x12c>
  401140:	48 89 e2             	mov    %rsp,%rdx
  401143:	be e0 30 40 00       	mov    $0x4030e0,%esi
  401148:	bf 01 00 00 00       	mov    $0x1,%edi
  40114d:	e8 ae fc ff ff       	callq  400e00 <__printf_chk@plt>
  401152:	bf 08 00 00 00       	mov    $0x8,%edi
  401157:	e8 f4 fc ff ff       	callq  400e50 <exit@plt>
  40115c:	48 8d bc 24 00 01 00 	lea    0x100(%rsp),%rdi
  401163:	00 
  401164:	e8 20 1b 00 00       	callq  402c89 <init_driver>
  401169:	85 c0                	test   %eax,%eax
  40116b:	79 26                	jns    401193 <initialize_target+0x163>
  40116d:	48 8d 94 24 00 01 00 	lea    0x100(%rsp),%rdx
  401174:	00 
  401175:	be 20 31 40 00       	mov    $0x403120,%esi
  40117a:	bf 01 00 00 00       	mov    $0x1,%edi
  40117f:	b8 00 00 00 00       	mov    $0x0,%eax
  401184:	e8 77 fc ff ff       	callq  400e00 <__printf_chk@plt>
  401189:	bf 08 00 00 00       	mov    $0x8,%edi
  40118e:	e8 bd fc ff ff       	callq  400e50 <exit@plt>
  401193:	48 8b 84 24 08 21 00 	mov    0x2108(%rsp),%rax
  40119a:	00 
  40119b:	64 48 33 04 25 28 00 	xor    %fs:0x28,%rax
  4011a2:	00 00 
  4011a4:	74 05                	je     4011ab <initialize_target+0x17b>
  4011a6:	e8 45 fb ff ff       	callq  400cf0 <__stack_chk_fail@plt>
  4011ab:	48 81 c4 18 21 00 00 	add    $0x2118,%rsp
  4011b2:	5b                   	pop    %rbx
  4011b3:	5d                   	pop    %rbp
  4011b4:	c3                   	retq   

00000000004011b5 <main>:
  4011b5:	41 56                	push   %r14
  4011b7:	41 55                	push   %r13
  4011b9:	41 54                	push   %r12
  4011bb:	55                   	push   %rbp
  4011bc:	53                   	push   %rbx
  4011bd:	41 89 fc             	mov    %edi,%r12d
  4011c0:	48 89 f3             	mov    %rsi,%rbx
  4011c3:	be c4 1f 40 00       	mov    $0x401fc4,%esi
  4011c8:	bf 0b 00 00 00       	mov    $0xb,%edi
  4011cd:	e8 8e fb ff ff       	callq  400d60 <signal@plt>
  4011d2:	be 76 1f 40 00       	mov    $0x401f76,%esi
  4011d7:	bf 07 00 00 00       	mov    $0x7,%edi
  4011dc:	e8 7f fb ff ff       	callq  400d60 <signal@plt>
  4011e1:	be 12 20 40 00       	mov    $0x402012,%esi
  4011e6:	bf 04 00 00 00       	mov    $0x4,%edi
  4011eb:	e8 70 fb ff ff       	callq  400d60 <signal@plt>
  4011f0:	83 3d 31 43 20 00 00 	cmpl   $0x0,0x204331(%rip)        # 605528 <is_checker>
  4011f7:	74 20                	je     401219 <main+0x64>
  4011f9:	be 60 20 40 00       	mov    $0x402060,%esi
  4011fe:	bf 0e 00 00 00       	mov    $0xe,%edi
  401203:	e8 58 fb ff ff       	callq  400d60 <signal@plt>
  401208:	bf 05 00 00 00       	mov    $0x5,%edi
  40120d:	e8 0e fb ff ff       	callq  400d20 <alarm@plt>
  401212:	bd ea 31 40 00       	mov    $0x4031ea,%ebp
  401217:	eb 05                	jmp    40121e <main+0x69>
  401219:	bd e5 31 40 00       	mov    $0x4031e5,%ebp
  40121e:	48 8b 05 9b 42 20 00 	mov    0x20429b(%rip),%rax        # 6054c0 <stdin@@GLIBC_2.2.5>
  401225:	48 89 05 e4 42 20 00 	mov    %rax,0x2042e4(%rip)        # 605510 <infile>
  40122c:	41 bd 00 00 00 00    	mov    $0x0,%r13d
  401232:	41 be 00 00 00 00    	mov    $0x0,%r14d
  401238:	e9 c6 00 00 00       	jmpq   401303 <main+0x14e>
  40123d:	83 e8 61             	sub    $0x61,%eax
  401240:	3c 10                	cmp    $0x10,%al
  401242:	0f 87 9c 00 00 00    	ja     4012e4 <main+0x12f>
  401248:	0f b6 c0             	movzbl %al,%eax
  40124b:	ff 24 c5 30 32 40 00 	jmpq   *0x403230(,%rax,8)
  401252:	48 8b 3b             	mov    (%rbx),%rdi
  401255:	e8 4c fd ff ff       	callq  400fa6 <usage>
  40125a:	be 90 33 40 00       	mov    $0x403390,%esi
  40125f:	48 8b 3d 62 42 20 00 	mov    0x204262(%rip),%rdi        # 6054c8 <optarg@@GLIBC_2.2.5>
  401266:	e8 a5 fb ff ff       	callq  400e10 <fopen@plt>
  40126b:	48 89 05 9e 42 20 00 	mov    %rax,0x20429e(%rip)        # 605510 <infile>
  401272:	48 85 c0             	test   %rax,%rax
  401275:	0f 85 88 00 00 00    	jne    401303 <main+0x14e>
  40127b:	48 8b 0d 46 42 20 00 	mov    0x204246(%rip),%rcx        # 6054c8 <optarg@@GLIBC_2.2.5>
  401282:	ba f2 31 40 00       	mov    $0x4031f2,%edx
  401287:	be 01 00 00 00       	mov    $0x1,%esi
  40128c:	48 8b 3d 4d 42 20 00 	mov    0x20424d(%rip),%rdi        # 6054e0 <stderr@@GLIBC_2.2.5>
  401293:	e8 d8 fb ff ff       	callq  400e70 <__fprintf_chk@plt>
  401298:	b8 01 00 00 00       	mov    $0x1,%eax
  40129d:	e9 e4 00 00 00       	jmpq   401386 <main+0x1d1>
  4012a2:	ba 10 00 00 00       	mov    $0x10,%edx
  4012a7:	be 00 00 00 00       	mov    $0x0,%esi
  4012ac:	48 8b 3d 15 42 20 00 	mov    0x204215(%rip),%rdi        # 6054c8 <optarg@@GLIBC_2.2.5>
  4012b3:	e8 78 fb ff ff       	callq  400e30 <strtoul@plt>
  4012b8:	41 89 c6             	mov    %eax,%r14d
  4012bb:	eb 46                	jmp    401303 <main+0x14e>
  4012bd:	ba 0a 00 00 00       	mov    $0xa,%edx
  4012c2:	be 00 00 00 00       	mov    $0x0,%esi
  4012c7:	48 8b 3d fa 41 20 00 	mov    0x2041fa(%rip),%rdi        # 6054c8 <optarg@@GLIBC_2.2.5>
  4012ce:	e8 bd fa ff ff       	callq  400d90 <strtol@plt>
  4012d3:	41 89 c5             	mov    %eax,%r13d
  4012d6:	eb 2b                	jmp    401303 <main+0x14e>
  4012d8:	c7 05 c6 41 20 00 00 	movl   $0x0,0x2041c6(%rip)        # 6054a8 <notify>
  4012df:	00 00 00 
  4012e2:	eb 1f                	jmp    401303 <main+0x14e>
  4012e4:	0f be d2             	movsbl %dl,%edx
  4012e7:	be 0f 32 40 00       	mov    $0x40320f,%esi
  4012ec:	bf 01 00 00 00       	mov    $0x1,%edi
  4012f1:	b8 00 00 00 00       	mov    $0x0,%eax
  4012f6:	e8 05 fb ff ff       	callq  400e00 <__printf_chk@plt>
  4012fb:	48 8b 3b             	mov    (%rbx),%rdi
  4012fe:	e8 a3 fc ff ff       	callq  400fa6 <usage>
  401303:	48 89 ea             	mov    %rbp,%rdx
  401306:	48 89 de             	mov    %rbx,%rsi
  401309:	44 89 e7             	mov    %r12d,%edi
  40130c:	e8 0f fb ff ff       	callq  400e20 <getopt@plt>
  401311:	89 c2                	mov    %eax,%edx
  401313:	3c ff                	cmp    $0xff,%al
  401315:	0f 85 22 ff ff ff    	jne    40123d <main+0x88>
  40131b:	be 01 00 00 00       	mov    $0x1,%esi
  401320:	44 89 ef             	mov    %r13d,%edi
  401323:	e8 08 fd ff ff       	callq  401030 <initialize_target>
  401328:	83 3d f9 41 20 00 00 	cmpl   $0x0,0x2041f9(%rip)        # 605528 <is_checker>
  40132f:	74 2a                	je     40135b <main+0x1a6>
  401331:	44 3b 35 e8 41 20 00 	cmp    0x2041e8(%rip),%r14d        # 605520 <authkey>
  401338:	74 21                	je     40135b <main+0x1a6>
  40133a:	44 89 f2             	mov    %r14d,%edx
  40133d:	be 48 31 40 00       	mov    $0x403148,%esi
  401342:	bf 01 00 00 00       	mov    $0x1,%edi
  401347:	b8 00 00 00 00       	mov    $0x0,%eax
  40134c:	e8 af fa ff ff       	callq  400e00 <__printf_chk@plt>
  401351:	b8 00 00 00 00       	mov    $0x0,%eax
  401356:	e8 b7 08 00 00       	callq  401c12 <check_fail>
  40135b:	8b 15 c3 41 20 00    	mov    0x2041c3(%rip),%edx        # 605524 <cookie>
  401361:	be 22 32 40 00       	mov    $0x403222,%esi
  401366:	bf 01 00 00 00       	mov    $0x1,%edi
  40136b:	b8 00 00 00 00       	mov    $0x0,%eax
  401370:	e8 8b fa ff ff       	callq  400e00 <__printf_chk@plt>
  401375:	48 8b 3d 24 41 20 00 	mov    0x204124(%rip),%rdi        # 6054a0 <buf_offset>
  40137c:	e8 32 0d 00 00       	callq  4020b3 <launch>
  401381:	b8 00 00 00 00       	mov    $0x0,%eax
  401386:	5b                   	pop    %rbx
  401387:	5d                   	pop    %rbp
  401388:	41 5c                	pop    %r12
  40138a:	41 5d                	pop    %r13
  40138c:	41 5e                	pop    %r14
  40138e:	c3                   	retq   

000000000040138f <scramble>:
  40138f:	48 83 ec 38          	sub    $0x38,%rsp
  401393:	64 48 8b 04 25 28 00 	mov    %fs:0x28,%rax
  40139a:	00 00 
  40139c:	48 89 44 24 28       	mov    %rax,0x28(%rsp)
  4013a1:	31 c0                	xor    %eax,%eax
  4013a3:	eb 10                	jmp    4013b5 <scramble+0x26>
  4013a5:	69 d0 b8 37 00 00    	imul   $0x37b8,%eax,%edx
  4013ab:	01 fa                	add    %edi,%edx
  4013ad:	89 c1                	mov    %eax,%ecx
  4013af:	89 14 8c             	mov    %edx,(%rsp,%rcx,4)
  4013b2:	83 c0 01             	add    $0x1,%eax
  4013b5:	83 f8 09             	cmp    $0x9,%eax
  4013b8:	76 eb                	jbe    4013a5 <scramble+0x16>
  4013ba:	8b 44 24 24          	mov    0x24(%rsp),%eax
  4013be:	69 c0 e3 d4 00 00    	imul   $0xd4e3,%eax,%eax
  4013c4:	89 44 24 24          	mov    %eax,0x24(%rsp)
  4013c8:	8b 04 24             	mov    (%rsp),%eax
  4013cb:	69 c0 b1 ba 00 00    	imul   $0xbab1,%eax,%eax
  4013d1:	89 04 24             	mov    %eax,(%rsp)
  4013d4:	8b 44 24 24          	mov    0x24(%rsp),%eax
  4013d8:	69 c0 13 36 00 00    	imul   $0x3613,%eax,%eax
  4013de:	89 44 24 24          	mov    %eax,0x24(%rsp)
  4013e2:	8b 44 24 04          	mov    0x4(%rsp),%eax
  4013e6:	69 c0 bd 24 00 00    	imul   $0x24bd,%eax,%eax
  4013ec:	89 44 24 04          	mov    %eax,0x4(%rsp)
  4013f0:	8b 44 24 10          	mov    0x10(%rsp),%eax
  4013f4:	69 c0 26 77 00 00    	imul   $0x7726,%eax,%eax
  4013fa:	89 44 24 10          	mov    %eax,0x10(%rsp)
  4013fe:	8b 44 24 08          	mov    0x8(%rsp),%eax
  401402:	69 c0 f4 e5 00 00    	imul   $0xe5f4,%eax,%eax
  401408:	89 44 24 08          	mov    %eax,0x8(%rsp)
  40140c:	8b 44 24 24          	mov    0x24(%rsp),%eax
  401410:	69 c0 6f f8 00 00    	imul   $0xf86f,%eax,%eax
  401416:	89 44 24 24          	mov    %eax,0x24(%rsp)
  40141a:	8b 44 24 04          	mov    0x4(%rsp),%eax
  40141e:	69 c0 88 e6 00 00    	imul   $0xe688,%eax,%eax
  401424:	89 44 24 04          	mov    %eax,0x4(%rsp)
  401428:	8b 44 24 08          	mov    0x8(%rsp),%eax
  40142c:	69 c0 81 7d 00 00    	imul   $0x7d81,%eax,%eax
  401432:	89 44 24 08          	mov    %eax,0x8(%rsp)
  401436:	8b 44 24 08          	mov    0x8(%rsp),%eax
  40143a:	69 c0 e5 ec 00 00    	imul   $0xece5,%eax,%eax
  401440:	89 44 24 08          	mov    %eax,0x8(%rsp)
  401444:	8b 44 24 20          	mov    0x20(%rsp),%eax
  401448:	69 c0 6a ff 00 00    	imul   $0xff6a,%eax,%eax
  40144e:	89 44 24 20          	mov    %eax,0x20(%rsp)
  401452:	8b 44 24 04          	mov    0x4(%rsp),%eax
  401456:	69 c0 04 7e 00 00    	imul   $0x7e04,%eax,%eax
  40145c:	89 44 24 04          	mov    %eax,0x4(%rsp)
  401460:	8b 04 24             	mov    (%rsp),%eax
  401463:	69 c0 27 e1 00 00    	imul   $0xe127,%eax,%eax
  401469:	89 04 24             	mov    %eax,(%rsp)
  40146c:	8b 44 24 14          	mov    0x14(%rsp),%eax
  401470:	69 c0 78 ec 00 00    	imul   $0xec78,%eax,%eax
  401476:	89 44 24 14          	mov    %eax,0x14(%rsp)
  40147a:	8b 44 24 10          	mov    0x10(%rsp),%eax
  40147e:	69 c0 e9 c8 00 00    	imul   $0xc8e9,%eax,%eax
  401484:	89 44 24 10          	mov    %eax,0x10(%rsp)
  401488:	8b 44 24 20          	mov    0x20(%rsp),%eax
  40148c:	69 c0 ff 49 00 00    	imul   $0x49ff,%eax,%eax
  401492:	89 44 24 20          	mov    %eax,0x20(%rsp)
  401496:	8b 44 24 18          	mov    0x18(%rsp),%eax
  40149a:	69 c0 c5 49 00 00    	imul   $0x49c5,%eax,%eax
  4014a0:	89 44 24 18          	mov    %eax,0x18(%rsp)
  4014a4:	8b 44 24 18          	mov    0x18(%rsp),%eax
  4014a8:	69 c0 94 76 00 00    	imul   $0x7694,%eax,%eax
  4014ae:	89 44 24 18          	mov    %eax,0x18(%rsp)
  4014b2:	8b 04 24             	mov    (%rsp),%eax
  4014b5:	69 c0 7b 34 00 00    	imul   $0x347b,%eax,%eax
  4014bb:	89 04 24             	mov    %eax,(%rsp)
  4014be:	8b 44 24 08          	mov    0x8(%rsp),%eax
  4014c2:	69 c0 fc 0a 00 00    	imul   $0xafc,%eax,%eax
  4014c8:	89 44 24 08          	mov    %eax,0x8(%rsp)
  4014cc:	8b 44 24 18          	mov    0x18(%rsp),%eax
  4014d0:	69 c0 9e 61 00 00    	imul   $0x619e,%eax,%eax
  4014d6:	89 44 24 18          	mov    %eax,0x18(%rsp)
  4014da:	8b 44 24 1c          	mov    0x1c(%rsp),%eax
  4014de:	69 c0 06 f9 00 00    	imul   $0xf906,%eax,%eax
  4014e4:	89 44 24 1c          	mov    %eax,0x1c(%rsp)
  4014e8:	8b 44 24 18          	mov    0x18(%rsp),%eax
  4014ec:	69 c0 07 e8 00 00    	imul   $0xe807,%eax,%eax
  4014f2:	89 44 24 18          	mov    %eax,0x18(%rsp)
  4014f6:	8b 44 24 1c          	mov    0x1c(%rsp),%eax
  4014fa:	69 c0 8f d8 00 00    	imul   $0xd88f,%eax,%eax
  401500:	89 44 24 1c          	mov    %eax,0x1c(%rsp)
  401504:	8b 44 24 18          	mov    0x18(%rsp),%eax
  401508:	69 c0 e3 e5 00 00    	imul   $0xe5e3,%eax,%eax
  40150e:	89 44 24 18          	mov    %eax,0x18(%rsp)
  401512:	8b 44 24 04          	mov    0x4(%rsp),%eax
  401516:	69 c0 71 60 00 00    	imul   $0x6071,%eax,%eax
  40151c:	89 44 24 04          	mov    %eax,0x4(%rsp)
  401520:	8b 44 24 24          	mov    0x24(%rsp),%eax
  401524:	69 c0 8e 0e 00 00    	imul   $0xe8e,%eax,%eax
  40152a:	89 44 24 24          	mov    %eax,0x24(%rsp)
  40152e:	8b 04 24             	mov    (%rsp),%eax
  401531:	69 c0 d8 c2 00 00    	imul   $0xc2d8,%eax,%eax
  401537:	89 04 24             	mov    %eax,(%rsp)
  40153a:	8b 04 24             	mov    (%rsp),%eax
  40153d:	69 c0 dc 43 00 00    	imul   $0x43dc,%eax,%eax
  401543:	89 04 24             	mov    %eax,(%rsp)
  401546:	8b 44 24 04          	mov    0x4(%rsp),%eax
  40154a:	69 c0 fd 01 00 00    	imul   $0x1fd,%eax,%eax
  401550:	89 44 24 04          	mov    %eax,0x4(%rsp)
  401554:	8b 44 24 0c          	mov    0xc(%rsp),%eax
  401558:	69 c0 e4 72 00 00    	imul   $0x72e4,%eax,%eax
  40155e:	89 44 24 0c          	mov    %eax,0xc(%rsp)
  401562:	8b 44 24 04          	mov    0x4(%rsp),%eax
  401566:	69 c0 92 aa 00 00    	imul   $0xaa92,%eax,%eax
  40156c:	89 44 24 04          	mov    %eax,0x4(%rsp)
  401570:	8b 04 24             	mov    (%rsp),%eax
  401573:	69 c0 ad 50 00 00    	imul   $0x50ad,%eax,%eax
  401579:	89 04 24             	mov    %eax,(%rsp)
  40157c:	8b 44 24 1c          	mov    0x1c(%rsp),%eax
  401580:	69 c0 82 3c 00 00    	imul   $0x3c82,%eax,%eax
  401586:	89 44 24 1c          	mov    %eax,0x1c(%rsp)
  40158a:	8b 44 24 20          	mov    0x20(%rsp),%eax
  40158e:	69 c0 78 bc 00 00    	imul   $0xbc78,%eax,%eax
  401594:	89 44 24 20          	mov    %eax,0x20(%rsp)
  401598:	8b 44 24 18          	mov    0x18(%rsp),%eax
  40159c:	69 c0 cb 30 00 00    	imul   $0x30cb,%eax,%eax
  4015a2:	89 44 24 18          	mov    %eax,0x18(%rsp)
  4015a6:	8b 44 24 1c          	mov    0x1c(%rsp),%eax
  4015aa:	69 c0 6e 38 00 00    	imul   $0x386e,%eax,%eax
  4015b0:	89 44 24 1c          	mov    %eax,0x1c(%rsp)
  4015b4:	8b 44 24 0c          	mov    0xc(%rsp),%eax
  4015b8:	69 c0 24 78 00 00    	imul   $0x7824,%eax,%eax
  4015be:	89 44 24 0c          	mov    %eax,0xc(%rsp)
  4015c2:	8b 44 24 1c          	mov    0x1c(%rsp),%eax
  4015c6:	69 c0 5f 09 00 00    	imul   $0x95f,%eax,%eax
  4015cc:	89 44 24 1c          	mov    %eax,0x1c(%rsp)
  4015d0:	8b 44 24 18          	mov    0x18(%rsp),%eax
  4015d4:	69 c0 fe 85 00 00    	imul   $0x85fe,%eax,%eax
  4015da:	89 44 24 18          	mov    %eax,0x18(%rsp)
  4015de:	8b 44 24 0c          	mov    0xc(%rsp),%eax
  4015e2:	69 c0 27 16 00 00    	imul   $0x1627,%eax,%eax
  4015e8:	89 44 24 0c          	mov    %eax,0xc(%rsp)
  4015ec:	8b 04 24             	mov    (%rsp),%eax
  4015ef:	69 c0 90 d4 00 00    	imul   $0xd490,%eax,%eax
  4015f5:	89 04 24             	mov    %eax,(%rsp)
  4015f8:	8b 44 24 08          	mov    0x8(%rsp),%eax
  4015fc:	69 c0 e5 c4 00 00    	imul   $0xc4e5,%eax,%eax
  401602:	89 44 24 08          	mov    %eax,0x8(%rsp)
  401606:	8b 44 24 14          	mov    0x14(%rsp),%eax
  40160a:	69 c0 6c 14 00 00    	imul   $0x146c,%eax,%eax
  401610:	89 44 24 14          	mov    %eax,0x14(%rsp)
  401614:	8b 44 24 24          	mov    0x24(%rsp),%eax
  401618:	69 c0 b9 46 00 00    	imul   $0x46b9,%eax,%eax
  40161e:	89 44 24 24          	mov    %eax,0x24(%rsp)
  401622:	8b 44 24 1c          	mov    0x1c(%rsp),%eax
  401626:	69 c0 86 15 00 00    	imul   $0x1586,%eax,%eax
  40162c:	89 44 24 1c          	mov    %eax,0x1c(%rsp)
  401630:	8b 44 24 20          	mov    0x20(%rsp),%eax
  401634:	69 c0 66 62 00 00    	imul   $0x6266,%eax,%eax
  40163a:	89 44 24 20          	mov    %eax,0x20(%rsp)
  40163e:	8b 44 24 10          	mov    0x10(%rsp),%eax
  401642:	69 c0 47 76 00 00    	imul   $0x7647,%eax,%eax
  401648:	89 44 24 10          	mov    %eax,0x10(%rsp)
  40164c:	8b 44 24 24          	mov    0x24(%rsp),%eax
  401650:	69 c0 3f e1 00 00    	imul   $0xe13f,%eax,%eax
  401656:	89 44 24 24          	mov    %eax,0x24(%rsp)
  40165a:	8b 44 24 04          	mov    0x4(%rsp),%eax
  40165e:	69 c0 3d 38 00 00    	imul   $0x383d,%eax,%eax
  401664:	89 44 24 04          	mov    %eax,0x4(%rsp)
  401668:	8b 44 24 08          	mov    0x8(%rsp),%eax
  40166c:	69 c0 47 fa 00 00    	imul   $0xfa47,%eax,%eax
  401672:	89 44 24 08          	mov    %eax,0x8(%rsp)
  401676:	8b 44 24 14          	mov    0x14(%rsp),%eax
  40167a:	69 c0 ce bb 00 00    	imul   $0xbbce,%eax,%eax
  401680:	89 44 24 14          	mov    %eax,0x14(%rsp)
  401684:	8b 44 24 10          	mov    0x10(%rsp),%eax
  401688:	69 c0 d9 92 00 00    	imul   $0x92d9,%eax,%eax
  40168e:	89 44 24 10          	mov    %eax,0x10(%rsp)
  401692:	8b 44 24 18          	mov    0x18(%rsp),%eax
  401696:	69 c0 2a 53 00 00    	imul   $0x532a,%eax,%eax
  40169c:	89 44 24 18          	mov    %eax,0x18(%rsp)
  4016a0:	8b 44 24 14          	mov    0x14(%rsp),%eax
  4016a4:	69 c0 a5 84 00 00    	imul   $0x84a5,%eax,%eax
  4016aa:	89 44 24 14          	mov    %eax,0x14(%rsp)
  4016ae:	8b 44 24 20          	mov    0x20(%rsp),%eax
  4016b2:	69 c0 7b 8b 00 00    	imul   $0x8b7b,%eax,%eax
  4016b8:	89 44 24 20          	mov    %eax,0x20(%rsp)
  4016bc:	8b 44 24 0c          	mov    0xc(%rsp),%eax
  4016c0:	69 c0 98 bf 00 00    	imul   $0xbf98,%eax,%eax
  4016c6:	89 44 24 0c          	mov    %eax,0xc(%rsp)
  4016ca:	8b 44 24 0c          	mov    0xc(%rsp),%eax
  4016ce:	69 c0 82 bf 00 00    	imul   $0xbf82,%eax,%eax
  4016d4:	89 44 24 0c          	mov    %eax,0xc(%rsp)
  4016d8:	8b 44 24 08          	mov    0x8(%rsp),%eax
  4016dc:	69 c0 73 f7 00 00    	imul   $0xf773,%eax,%eax
  4016e2:	89 44 24 08          	mov    %eax,0x8(%rsp)
  4016e6:	8b 44 24 20          	mov    0x20(%rsp),%eax
  4016ea:	69 c0 3e 8d 00 00    	imul   $0x8d3e,%eax,%eax
  4016f0:	89 44 24 20          	mov    %eax,0x20(%rsp)
  4016f4:	8b 44 24 24          	mov    0x24(%rsp),%eax
  4016f8:	69 c0 58 ea 00 00    	imul   $0xea58,%eax,%eax
  4016fe:	89 44 24 24          	mov    %eax,0x24(%rsp)
  401702:	8b 44 24 18          	mov    0x18(%rsp),%eax
  401706:	69 c0 ca f7 00 00    	imul   $0xf7ca,%eax,%eax
  40170c:	89 44 24 18          	mov    %eax,0x18(%rsp)
  401710:	8b 44 24 24          	mov    0x24(%rsp),%eax
  401714:	69 c0 dd 62 00 00    	imul   $0x62dd,%eax,%eax
  40171a:	89 44 24 24          	mov    %eax,0x24(%rsp)
  40171e:	8b 44 24 20          	mov    0x20(%rsp),%eax
  401722:	69 c0 d2 ff 00 00    	imul   $0xffd2,%eax,%eax
  401728:	89 44 24 20          	mov    %eax,0x20(%rsp)
  40172c:	8b 44 24 0c          	mov    0xc(%rsp),%eax
  401730:	69 c0 da 20 00 00    	imul   $0x20da,%eax,%eax
  401736:	89 44 24 0c          	mov    %eax,0xc(%rsp)
  40173a:	8b 44 24 24          	mov    0x24(%rsp),%eax
  40173e:	69 c0 d4 e1 00 00    	imul   $0xe1d4,%eax,%eax
  401744:	89 44 24 24          	mov    %eax,0x24(%rsp)
  401748:	8b 04 24             	mov    (%rsp),%eax
  40174b:	69 c0 17 a1 00 00    	imul   $0xa117,%eax,%eax
  401751:	89 04 24             	mov    %eax,(%rsp)
  401754:	8b 04 24             	mov    (%rsp),%eax
  401757:	69 c0 d6 4d 00 00    	imul   $0x4dd6,%eax,%eax
  40175d:	89 04 24             	mov    %eax,(%rsp)
  401760:	8b 44 24 20          	mov    0x20(%rsp),%eax
  401764:	69 c0 94 d1 00 00    	imul   $0xd194,%eax,%eax
  40176a:	89 44 24 20          	mov    %eax,0x20(%rsp)
  40176e:	8b 44 24 24          	mov    0x24(%rsp),%eax
  401772:	69 c0 29 d0 00 00    	imul   $0xd029,%eax,%eax
  401778:	89 44 24 24          	mov    %eax,0x24(%rsp)
  40177c:	8b 44 24 08          	mov    0x8(%rsp),%eax
  401780:	69 c0 29 7a 00 00    	imul   $0x7a29,%eax,%eax
  401786:	89 44 24 08          	mov    %eax,0x8(%rsp)
  40178a:	8b 44 24 10          	mov    0x10(%rsp),%eax
  40178e:	69 c0 05 f1 00 00    	imul   $0xf105,%eax,%eax
  401794:	89 44 24 10          	mov    %eax,0x10(%rsp)
  401798:	8b 04 24             	mov    (%rsp),%eax
  40179b:	69 c0 af bb 00 00    	imul   $0xbbaf,%eax,%eax
  4017a1:	89 04 24             	mov    %eax,(%rsp)
  4017a4:	8b 04 24             	mov    (%rsp),%eax
  4017a7:	69 c0 3f be 00 00    	imul   $0xbe3f,%eax,%eax
  4017ad:	89 04 24             	mov    %eax,(%rsp)
  4017b0:	8b 04 24             	mov    (%rsp),%eax
  4017b3:	69 c0 76 84 00 00    	imul   $0x8476,%eax,%eax
  4017b9:	89 04 24             	mov    %eax,(%rsp)
  4017bc:	8b 44 24 18          	mov    0x18(%rsp),%eax
  4017c0:	69 c0 4f f1 00 00    	imul   $0xf14f,%eax,%eax
  4017c6:	89 44 24 18          	mov    %eax,0x18(%rsp)
  4017ca:	8b 44 24 24          	mov    0x24(%rsp),%eax
  4017ce:	69 c0 43 ee 00 00    	imul   $0xee43,%eax,%eax
  4017d4:	89 44 24 24          	mov    %eax,0x24(%rsp)
  4017d8:	8b 44 24 20          	mov    0x20(%rsp),%eax
  4017dc:	69 c0 8d bb 00 00    	imul   $0xbb8d,%eax,%eax
  4017e2:	89 44 24 20          	mov    %eax,0x20(%rsp)
  4017e6:	8b 44 24 1c          	mov    0x1c(%rsp),%eax
  4017ea:	69 c0 2a 57 00 00    	imul   $0x572a,%eax,%eax
  4017f0:	89 44 24 1c          	mov    %eax,0x1c(%rsp)
  4017f4:	8b 04 24             	mov    (%rsp),%eax
  4017f7:	69 c0 3d 95 00 00    	imul   $0x953d,%eax,%eax
  4017fd:	89 04 24             	mov    %eax,(%rsp)
  401800:	8b 44 24 04          	mov    0x4(%rsp),%eax
  401804:	69 c0 6f f3 00 00    	imul   $0xf36f,%eax,%eax
  40180a:	89 44 24 04          	mov    %eax,0x4(%rsp)
  40180e:	8b 44 24 08          	mov    0x8(%rsp),%eax
  401812:	69 c0 25 93 00 00    	imul   $0x9325,%eax,%eax
  401818:	89 44 24 08          	mov    %eax,0x8(%rsp)
  40181c:	8b 44 24 1c          	mov    0x1c(%rsp),%eax
  401820:	69 c0 b3 14 00 00    	imul   $0x14b3,%eax,%eax
  401826:	89 44 24 1c          	mov    %eax,0x1c(%rsp)
  40182a:	8b 44 24 24          	mov    0x24(%rsp),%eax
  40182e:	69 c0 77 c8 00 00    	imul   $0xc877,%eax,%eax
  401834:	89 44 24 24          	mov    %eax,0x24(%rsp)
  401838:	8b 44 24 08          	mov    0x8(%rsp),%eax
  40183c:	69 c0 fb 81 00 00    	imul   $0x81fb,%eax,%eax
  401842:	89 44 24 08          	mov    %eax,0x8(%rsp)
  401846:	8b 44 24 04          	mov    0x4(%rsp),%eax
  40184a:	69 c0 80 3c 00 00    	imul   $0x3c80,%eax,%eax
  401850:	89 44 24 04          	mov    %eax,0x4(%rsp)
  401854:	8b 44 24 1c          	mov    0x1c(%rsp),%eax
  401858:	69 c0 44 f4 00 00    	imul   $0xf444,%eax,%eax
  40185e:	89 44 24 1c          	mov    %eax,0x1c(%rsp)
  401862:	ba 00 00 00 00       	mov    $0x0,%edx
  401867:	b8 00 00 00 00       	mov    $0x0,%eax
  40186c:	eb 0a                	jmp    401878 <scramble+0x4e9>
  40186e:	89 d1                	mov    %edx,%ecx
  401870:	8b 0c 8c             	mov    (%rsp,%rcx,4),%ecx
  401873:	01 c8                	add    %ecx,%eax
  401875:	83 c2 01             	add    $0x1,%edx
  401878:	83 fa 09             	cmp    $0x9,%edx
  40187b:	76 f1                	jbe    40186e <scramble+0x4df>
  40187d:	48 8b 74 24 28       	mov    0x28(%rsp),%rsi
  401882:	64 48 33 34 25 28 00 	xor    %fs:0x28,%rsi
  401889:	00 00 
  40188b:	74 05                	je     401892 <scramble+0x503>
  40188d:	e8 5e f4 ff ff       	callq  400cf0 <__stack_chk_fail@plt>
  401892:	48 83 c4 38          	add    $0x38,%rsp
  401896:	c3                   	retq   

0000000000401897 <getbuf>:
  401897:	48 83 ec 38          	sub    $0x38,%rsp
  40189b:	48 89 e7             	mov    %rsp,%rdi
  40189e:	e8 a4 03 00 00       	callq  401c47 <Gets>
  4018a3:	b8 01 00 00 00       	mov    $0x1,%eax
  4018a8:	48 83 c4 38          	add    $0x38,%rsp
  4018ac:	c3                   	retq   

00000000004018ad <touch1>:
  4018ad:	48 83 ec 08          	sub    $0x8,%rsp
  4018b1:	c7 05 61 3c 20 00 01 	movl   $0x1,0x203c61(%rip)        # 60551c <vlevel>
  4018b8:	00 00 00 
  4018bb:	bf 99 33 40 00       	mov    $0x403399,%edi
  4018c0:	e8 0b f4 ff ff       	callq  400cd0 <puts@plt>
  4018c5:	bf 01 00 00 00       	mov    $0x1,%edi
  4018ca:	e8 bd 05 00 00       	callq  401e8c <validate>
  4018cf:	bf 00 00 00 00       	mov    $0x0,%edi
  4018d4:	e8 77 f5 ff ff       	callq  400e50 <exit@plt>

00000000004018d9 <touch2>:
  4018d9:	48 83 ec 08          	sub    $0x8,%rsp
  4018dd:	89 fa                	mov    %edi,%edx
  4018df:	c7 05 33 3c 20 00 02 	movl   $0x2,0x203c33(%rip)        # 60551c <vlevel>
  4018e6:	00 00 00 
  4018e9:	39 3d 35 3c 20 00    	cmp    %edi,0x203c35(%rip)        # 605524 <cookie>
  4018ef:	75 20                	jne    401911 <touch2+0x38>
  4018f1:	be c0 33 40 00       	mov    $0x4033c0,%esi
  4018f6:	bf 01 00 00 00       	mov    $0x1,%edi
  4018fb:	b8 00 00 00 00       	mov    $0x0,%eax
  401900:	e8 fb f4 ff ff       	callq  400e00 <__printf_chk@plt>
  401905:	bf 02 00 00 00       	mov    $0x2,%edi
  40190a:	e8 7d 05 00 00       	callq  401e8c <validate>
  40190f:	eb 1e                	jmp    40192f <touch2+0x56>
  401911:	be e8 33 40 00       	mov    $0x4033e8,%esi
  401916:	bf 01 00 00 00       	mov    $0x1,%edi
  40191b:	b8 00 00 00 00       	mov    $0x0,%eax
  401920:	e8 db f4 ff ff       	callq  400e00 <__printf_chk@plt>
  401925:	bf 02 00 00 00       	mov    $0x2,%edi
  40192a:	e8 1f 06 00 00       	callq  401f4e <fail>
  40192f:	bf 00 00 00 00       	mov    $0x0,%edi
  401934:	e8 17 f5 ff ff       	callq  400e50 <exit@plt>

0000000000401939 <hexmatch>:
  401939:	41 54                	push   %r12
  40193b:	55                   	push   %rbp
  40193c:	53                   	push   %rbx
  40193d:	48 83 c4 80          	add    $0xffffffffffffff80,%rsp
  401941:	89 fd                	mov    %edi,%ebp
  401943:	48 89 f3             	mov    %rsi,%rbx
  401946:	64 48 8b 04 25 28 00 	mov    %fs:0x28,%rax
  40194d:	00 00 
  40194f:	48 89 44 24 78       	mov    %rax,0x78(%rsp)
  401954:	31 c0                	xor    %eax,%eax
  401956:	e8 65 f4 ff ff       	callq  400dc0 <random@plt>
  40195b:	48 89 c1             	mov    %rax,%rcx
  40195e:	48 ba 0b d7 a3 70 3d 	movabs $0xa3d70a3d70a3d70b,%rdx
  401965:	0a d7 a3 
  401968:	48 f7 ea             	imul   %rdx
  40196b:	48 01 ca             	add    %rcx,%rdx
  40196e:	48 c1 fa 06          	sar    $0x6,%rdx
  401972:	48 89 c8             	mov    %rcx,%rax
  401975:	48 c1 f8 3f          	sar    $0x3f,%rax
  401979:	48 29 c2             	sub    %rax,%rdx
  40197c:	48 8d 04 92          	lea    (%rdx,%rdx,4),%rax
  401980:	48 8d 14 80          	lea    (%rax,%rax,4),%rdx
  401984:	48 8d 04 95 00 00 00 	lea    0x0(,%rdx,4),%rax
  40198b:	00 
  40198c:	48 29 c1             	sub    %rax,%rcx
  40198f:	4c 8d 24 0c          	lea    (%rsp,%rcx,1),%r12
  401993:	41 89 e8             	mov    %ebp,%r8d
  401996:	b9 b6 33 40 00       	mov    $0x4033b6,%ecx
  40199b:	48 c7 c2 ff ff ff ff 	mov    $0xffffffffffffffff,%rdx
  4019a2:	be 01 00 00 00       	mov    $0x1,%esi
  4019a7:	4c 89 e7             	mov    %r12,%rdi
  4019aa:	b8 00 00 00 00       	mov    $0x0,%eax
  4019af:	e8 cc f4 ff ff       	callq  400e80 <__sprintf_chk@plt>
  4019b4:	ba 09 00 00 00       	mov    $0x9,%edx
  4019b9:	4c 89 e6             	mov    %r12,%rsi
  4019bc:	48 89 df             	mov    %rbx,%rdi
  4019bf:	e8 ec f2 ff ff       	callq  400cb0 <strncmp@plt>
  4019c4:	85 c0                	test   %eax,%eax
  4019c6:	0f 94 c0             	sete   %al
  4019c9:	48 8b 5c 24 78       	mov    0x78(%rsp),%rbx
  4019ce:	64 48 33 1c 25 28 00 	xor    %fs:0x28,%rbx
  4019d5:	00 00 
  4019d7:	74 05                	je     4019de <hexmatch+0xa5>
  4019d9:	e8 12 f3 ff ff       	callq  400cf0 <__stack_chk_fail@plt>
  4019de:	0f b6 c0             	movzbl %al,%eax
  4019e1:	48 83 ec 80          	sub    $0xffffffffffffff80,%rsp
  4019e5:	5b                   	pop    %rbx
  4019e6:	5d                   	pop    %rbp
  4019e7:	41 5c                	pop    %r12
  4019e9:	c3                   	retq   

00000000004019ea <touch3>:
  4019ea:	53                   	push   %rbx
  4019eb:	48 89 fb             	mov    %rdi,%rbx
  4019ee:	c7 05 24 3b 20 00 03 	movl   $0x3,0x203b24(%rip)        # 60551c <vlevel>
  4019f5:	00 00 00 
  4019f8:	48 89 fe             	mov    %rdi,%rsi
  4019fb:	8b 3d 23 3b 20 00    	mov    0x203b23(%rip),%edi        # 605524 <cookie>
  401a01:	e8 33 ff ff ff       	callq  401939 <hexmatch>
  401a06:	85 c0                	test   %eax,%eax
  401a08:	74 23                	je     401a2d <touch3+0x43>
  401a0a:	48 89 da             	mov    %rbx,%rdx
  401a0d:	be 10 34 40 00       	mov    $0x403410,%esi
  401a12:	bf 01 00 00 00       	mov    $0x1,%edi
  401a17:	b8 00 00 00 00       	mov    $0x0,%eax
  401a1c:	e8 df f3 ff ff       	callq  400e00 <__printf_chk@plt>
  401a21:	bf 03 00 00 00       	mov    $0x3,%edi
  401a26:	e8 61 04 00 00       	callq  401e8c <validate>
  401a2b:	eb 21                	jmp    401a4e <touch3+0x64>
  401a2d:	48 89 da             	mov    %rbx,%rdx
  401a30:	be 38 34 40 00       	mov    $0x403438,%esi
  401a35:	bf 01 00 00 00       	mov    $0x1,%edi
  401a3a:	b8 00 00 00 00       	mov    $0x0,%eax
  401a3f:	e8 bc f3 ff ff       	callq  400e00 <__printf_chk@plt>
  401a44:	bf 03 00 00 00       	mov    $0x3,%edi
  401a49:	e8 00 05 00 00       	callq  401f4e <fail>
  401a4e:	bf 00 00 00 00       	mov    $0x0,%edi
  401a53:	e8 f8 f3 ff ff       	callq  400e50 <exit@plt>

0000000000401a58 <test>:
  401a58:	48 83 ec 08          	sub    $0x8,%rsp
  401a5c:	b8 00 00 00 00       	mov    $0x0,%eax
  401a61:	e8 31 fe ff ff       	callq  401897 <getbuf>
  401a66:	89 c2                	mov    %eax,%edx
  401a68:	be 60 34 40 00       	mov    $0x403460,%esi
  401a6d:	bf 01 00 00 00       	mov    $0x1,%edi
  401a72:	b8 00 00 00 00       	mov    $0x0,%eax
  401a77:	e8 84 f3 ff ff       	callq  400e00 <__printf_chk@plt>
  401a7c:	48 83 c4 08          	add    $0x8,%rsp
  401a80:	c3                   	retq   

0000000000401a81 <start_farm>:
  401a81:	b8 01 00 00 00       	mov    $0x1,%eax
  401a86:	c3                   	retq   

0000000000401a87 <setval_234>:
  401a87:	c7 07 18 90 90 c3    	movl   $0xc3909018,(%rdi)
  401a8d:	c3                   	retq   

0000000000401a8e <setval_195>:
  401a8e:	c7 07 58 91 c3 c2    	movl   $0xc2c39158,(%rdi)
  401a94:	c3                   	retq   

0000000000401a95 <addval_449>:
  401a95:	8d 87 48 89 c7 c3    	lea    -0x3c3876b8(%rdi),%eax
  401a9b:	c3                   	retq   

0000000000401a9c <setval_329>:
  401a9c:	c7 07 48 89 c7 c3    	movl   $0xc3c78948,(%rdi)
  401aa2:	c3                   	retq   

0000000000401aa3 <addval_296>:
  401aa3:	8d 87 58 c3 aa 34    	lea    0x34aac358(%rdi),%eax
  401aa9:	c3                   	retq   

0000000000401aaa <setval_359>:
  401aaa:	c7 07 48 89 c7 92    	movl   $0x92c78948,(%rdi)
  401ab0:	c3                   	retq   

0000000000401ab1 <setval_497>:
  401ab1:	c7 07 58 90 90 c3    	movl   $0xc3909058,(%rdi)
  401ab7:	c3                   	retq   

0000000000401ab8 <addval_411>:
  401ab8:	8d 87 48 09 c7 c3    	lea    -0x3c38f6b8(%rdi),%eax
  401abe:	c3                   	retq   

0000000000401abf <mid_farm>:
  401abf:	b8 01 00 00 00       	mov    $0x1,%eax
  401ac4:	c3                   	retq   

0000000000401ac5 <add_xy>:
  401ac5:	48 8d 04 37          	lea    (%rdi,%rsi,1),%rax
  401ac9:	c3                   	retq   

0000000000401aca <addval_337>:
  401aca:	8d 87 48 89 e0 92    	lea    -0x6d1f76b8(%rdi),%eax
  401ad0:	c3                   	retq   

0000000000401ad1 <addval_374>:
  401ad1:	8d 87 95 89 d6 94    	lea    -0x6b29766b(%rdi),%eax
  401ad7:	c3                   	retq   

0000000000401ad8 <setval_293>:
  401ad8:	c7 07 89 c1 20 d2    	movl   $0xd220c189,(%rdi)
  401ade:	c3                   	retq   

0000000000401adf <getval_403>:
  401adf:	b8 89 ca 60 db       	mov    $0xdb60ca89,%eax
  401ae4:	c3                   	retq   

0000000000401ae5 <setval_131>:
  401ae5:	c7 07 48 89 e0 c3    	movl   $0xc3e08948,(%rdi)
  401aeb:	c3                   	retq   

0000000000401aec <addval_113>:
  401aec:	8d 87 cc 89 c1 92    	lea    -0x6d3e7634(%rdi),%eax
  401af2:	c3                   	retq   

0000000000401af3 <setval_198>:
  401af3:	c7 07 89 d6 90 90    	movl   $0x9090d689,(%rdi)
  401af9:	c3                   	retq   

0000000000401afa <getval_371>:
  401afa:	b8 89 c1 18 db       	mov    $0xdb18c189,%eax
  401aff:	c3                   	retq   

0000000000401b00 <setval_274>:
  401b00:	c7 07 89 ca 08 c0    	movl   $0xc008ca89,(%rdi)
  401b06:	c3                   	retq   

0000000000401b07 <addval_328>:
  401b07:	8d 87 8d d6 c3 b0    	lea    -0x4f3c2973(%rdi),%eax
  401b0d:	c3                   	retq   

0000000000401b0e <setval_476>:
  401b0e:	c7 07 48 89 e0 92    	movl   $0x92e08948,(%rdi)
  401b14:	c3                   	retq   

0000000000401b15 <setval_381>:
  401b15:	c7 07 89 ca 18 d2    	movl   $0xd218ca89,(%rdi)
  401b1b:	c3                   	retq   

0000000000401b1c <addval_143>:
  401b1c:	8d 87 89 d6 00 c0    	lea    -0x3fff2977(%rdi),%eax
  401b22:	c3                   	retq   

0000000000401b23 <addval_254>:
  401b23:	8d 87 48 89 e0 92    	lea    -0x6d1f76b8(%rdi),%eax
  401b29:	c3                   	retq   

0000000000401b2a <getval_437>:
  401b2a:	b8 48 99 e0 90       	mov    $0x90e09948,%eax
  401b2f:	c3                   	retq   

0000000000401b30 <getval_207>:
  401b30:	b8 89 d6 84 c9       	mov    $0xc984d689,%eax
  401b35:	c3                   	retq   

0000000000401b36 <getval_128>:
  401b36:	b8 c9 ca 20 d2       	mov    $0xd220cac9,%eax
  401b3b:	c3                   	retq   

0000000000401b3c <getval_422>:
  401b3c:	b8 81 d6 90 90       	mov    $0x9090d681,%eax
  401b41:	c3                   	retq   

0000000000401b42 <setval_490>:
  401b42:	c7 07 89 c1 00 c9    	movl   $0xc900c189,(%rdi)
  401b48:	c3                   	retq   

0000000000401b49 <getval_171>:
  401b49:	b8 89 ca 30 d2       	mov    $0xd230ca89,%eax
  401b4e:	c3                   	retq   

0000000000401b4f <getval_458>:
  401b4f:	b8 89 c1 00 db       	mov    $0xdb00c189,%eax
  401b54:	c3                   	retq   

0000000000401b55 <addval_330>:
  401b55:	8d 87 89 ca 90 90    	lea    -0x6f6f3577(%rdi),%eax
  401b5b:	c3                   	retq   

0000000000401b5c <setval_386>:
  401b5c:	c7 07 89 ca 18 d2    	movl   $0xd218ca89,(%rdi)
  401b62:	c3                   	retq   

0000000000401b63 <setval_389>:
  401b63:	c7 07 81 ca 08 db    	movl   $0xdb08ca81,(%rdi)
  401b69:	c3                   	retq   

0000000000401b6a <addval_189>:
  401b6a:	8d 87 48 c9 e0 c3    	lea    -0x3c1f36b8(%rdi),%eax
  401b70:	c3                   	retq   

0000000000401b71 <setval_184>:
  401b71:	c7 07 81 c1 84 db    	movl   $0xdb84c181,(%rdi)
  401b77:	c3                   	retq   

0000000000401b78 <setval_488>:
  401b78:	c7 07 89 d6 92 c3    	movl   $0xc392d689,(%rdi)
  401b7e:	c3                   	retq   

0000000000401b7f <addval_429>:
  401b7f:	8d 87 89 c1 20 db    	lea    -0x24df3e77(%rdi),%eax
  401b85:	c3                   	retq   

0000000000401b86 <setval_183>:
  401b86:	c7 07 4c 89 d6 94    	movl   $0x94d6894c,(%rdi)
  401b8c:	c3                   	retq   

0000000000401b8d <getval_487>:
  401b8d:	b8 89 c1 28 d2       	mov    $0xd228c189,%eax
  401b92:	c3                   	retq   

0000000000401b93 <setval_214>:
  401b93:	c7 07 48 89 e0 c3    	movl   $0xc3e08948,(%rdi)
  401b99:	c3                   	retq   

0000000000401b9a <addval_180>:
  401b9a:	8d 87 c8 89 e0 90    	lea    -0x6f1f7638(%rdi),%eax
  401ba0:	c3                   	retq   

0000000000401ba1 <end_farm>:
  401ba1:	b8 01 00 00 00       	mov    $0x1,%eax
  401ba6:	c3                   	retq   

0000000000401ba7 <save_char>:
  401ba7:	8b 05 97 45 20 00    	mov    0x204597(%rip),%eax        # 606144 <gets_cnt>
  401bad:	3d ff 03 00 00       	cmp    $0x3ff,%eax
  401bb2:	7f 49                	jg     401bfd <save_char+0x56>
  401bb4:	8d 14 40             	lea    (%rax,%rax,2),%edx
  401bb7:	89 f9                	mov    %edi,%ecx
  401bb9:	c0 e9 04             	shr    $0x4,%cl
  401bbc:	83 e1 0f             	and    $0xf,%ecx
  401bbf:	0f b6 b1 80 37 40 00 	movzbl 0x403780(%rcx),%esi
  401bc6:	48 63 ca             	movslq %edx,%rcx
  401bc9:	40 88 b1 40 55 60 00 	mov    %sil,0x605540(%rcx)
  401bd0:	8d 4a 01             	lea    0x1(%rdx),%ecx
  401bd3:	83 e7 0f             	and    $0xf,%edi
  401bd6:	0f b6 b7 80 37 40 00 	movzbl 0x403780(%rdi),%esi
  401bdd:	48 63 c9             	movslq %ecx,%rcx
  401be0:	40 88 b1 40 55 60 00 	mov    %sil,0x605540(%rcx)
  401be7:	83 c2 02             	add    $0x2,%edx
  401bea:	48 63 d2             	movslq %edx,%rdx
  401bed:	c6 82 40 55 60 00 20 	movb   $0x20,0x605540(%rdx)
  401bf4:	83 c0 01             	add    $0x1,%eax
  401bf7:	89 05 47 45 20 00    	mov    %eax,0x204547(%rip)        # 606144 <gets_cnt>
  401bfd:	f3 c3                	repz retq 

0000000000401bff <save_term>:
  401bff:	8b 05 3f 45 20 00    	mov    0x20453f(%rip),%eax        # 606144 <gets_cnt>
  401c05:	8d 04 40             	lea    (%rax,%rax,2),%eax
  401c08:	48 98                	cltq   
  401c0a:	c6 80 40 55 60 00 00 	movb   $0x0,0x605540(%rax)
  401c11:	c3                   	retq   

0000000000401c12 <check_fail>:
  401c12:	48 83 ec 08          	sub    $0x8,%rsp
  401c16:	0f be 15 2b 45 20 00 	movsbl 0x20452b(%rip),%edx        # 606148 <target_prefix>
  401c1d:	41 b8 40 55 60 00    	mov    $0x605540,%r8d
  401c23:	8b 0d ef 38 20 00    	mov    0x2038ef(%rip),%ecx        # 605518 <check_level>
  401c29:	be 83 34 40 00       	mov    $0x403483,%esi
  401c2e:	bf 01 00 00 00       	mov    $0x1,%edi
  401c33:	b8 00 00 00 00       	mov    $0x0,%eax
  401c38:	e8 c3 f1 ff ff       	callq  400e00 <__printf_chk@plt>
  401c3d:	bf 01 00 00 00       	mov    $0x1,%edi
  401c42:	e8 09 f2 ff ff       	callq  400e50 <exit@plt>

0000000000401c47 <Gets>:
  401c47:	41 54                	push   %r12
  401c49:	55                   	push   %rbp
  401c4a:	53                   	push   %rbx
  401c4b:	49 89 fc             	mov    %rdi,%r12
  401c4e:	c7 05 ec 44 20 00 00 	movl   $0x0,0x2044ec(%rip)        # 606144 <gets_cnt>
  401c55:	00 00 00 
  401c58:	48 89 fb             	mov    %rdi,%rbx
  401c5b:	eb 11                	jmp    401c6e <Gets+0x27>
  401c5d:	48 8d 6b 01          	lea    0x1(%rbx),%rbp
  401c61:	88 03                	mov    %al,(%rbx)
  401c63:	0f b6 f8             	movzbl %al,%edi
  401c66:	e8 3c ff ff ff       	callq  401ba7 <save_char>
  401c6b:	48 89 eb             	mov    %rbp,%rbx
  401c6e:	48 8b 3d 9b 38 20 00 	mov    0x20389b(%rip),%rdi        # 605510 <infile>
  401c75:	e8 56 f1 ff ff       	callq  400dd0 <_IO_getc@plt>
  401c7a:	83 f8 ff             	cmp    $0xffffffff,%eax
  401c7d:	74 05                	je     401c84 <Gets+0x3d>
  401c7f:	83 f8 0a             	cmp    $0xa,%eax
  401c82:	75 d9                	jne    401c5d <Gets+0x16>
  401c84:	c6 03 00             	movb   $0x0,(%rbx)
  401c87:	b8 00 00 00 00       	mov    $0x0,%eax
  401c8c:	e8 6e ff ff ff       	callq  401bff <save_term>
  401c91:	4c 89 e0             	mov    %r12,%rax
  401c94:	5b                   	pop    %rbx
  401c95:	5d                   	pop    %rbp
  401c96:	41 5c                	pop    %r12
  401c98:	c3                   	retq   

0000000000401c99 <notify_server>:
  401c99:	53                   	push   %rbx
  401c9a:	48 81 ec 10 40 00 00 	sub    $0x4010,%rsp
  401ca1:	64 48 8b 04 25 28 00 	mov    %fs:0x28,%rax
  401ca8:	00 00 
  401caa:	48 89 84 24 08 40 00 	mov    %rax,0x4008(%rsp)
  401cb1:	00 
  401cb2:	31 c0                	xor    %eax,%eax
  401cb4:	83 3d 6d 38 20 00 00 	cmpl   $0x0,0x20386d(%rip)        # 605528 <is_checker>
  401cbb:	0f 85 aa 01 00 00    	jne    401e6b <notify_server+0x1d2>
  401cc1:	89 fb                	mov    %edi,%ebx
  401cc3:	8b 05 7b 44 20 00    	mov    0x20447b(%rip),%eax        # 606144 <gets_cnt>
  401cc9:	83 c0 64             	add    $0x64,%eax
  401ccc:	3d 00 20 00 00       	cmp    $0x2000,%eax
  401cd1:	7e 1e                	jle    401cf1 <notify_server+0x58>
  401cd3:	be b8 35 40 00       	mov    $0x4035b8,%esi
  401cd8:	bf 01 00 00 00       	mov    $0x1,%edi
  401cdd:	b8 00 00 00 00       	mov    $0x0,%eax
  401ce2:	e8 19 f1 ff ff       	callq  400e00 <__printf_chk@plt>
  401ce7:	bf 01 00 00 00       	mov    $0x1,%edi
  401cec:	e8 5f f1 ff ff       	callq  400e50 <exit@plt>
  401cf1:	0f be 05 50 44 20 00 	movsbl 0x204450(%rip),%eax        # 606148 <target_prefix>
  401cf8:	83 3d a9 37 20 00 00 	cmpl   $0x0,0x2037a9(%rip)        # 6054a8 <notify>
  401cff:	74 08                	je     401d09 <notify_server+0x70>
  401d01:	8b 15 19 38 20 00    	mov    0x203819(%rip),%edx        # 605520 <authkey>
  401d07:	eb 05                	jmp    401d0e <notify_server+0x75>
  401d09:	ba ff ff ff ff       	mov    $0xffffffff,%edx
  401d0e:	85 db                	test   %ebx,%ebx
  401d10:	74 08                	je     401d1a <notify_server+0x81>
  401d12:	41 b9 99 34 40 00    	mov    $0x403499,%r9d
  401d18:	eb 06                	jmp    401d20 <notify_server+0x87>
  401d1a:	41 b9 9e 34 40 00    	mov    $0x40349e,%r9d
  401d20:	68 40 55 60 00       	pushq  $0x605540
  401d25:	56                   	push   %rsi
  401d26:	50                   	push   %rax
  401d27:	52                   	push   %rdx
  401d28:	44 8b 05 39 34 20 00 	mov    0x203439(%rip),%r8d        # 605168 <target_id>
  401d2f:	b9 a3 34 40 00       	mov    $0x4034a3,%ecx
  401d34:	ba 00 20 00 00       	mov    $0x2000,%edx
  401d39:	be 01 00 00 00       	mov    $0x1,%esi
  401d3e:	48 8d 7c 24 20       	lea    0x20(%rsp),%rdi
  401d43:	b8 00 00 00 00       	mov    $0x0,%eax
  401d48:	e8 33 f1 ff ff       	callq  400e80 <__sprintf_chk@plt>
  401d4d:	48 83 c4 20          	add    $0x20,%rsp
  401d51:	83 3d 50 37 20 00 00 	cmpl   $0x0,0x203750(%rip)        # 6054a8 <notify>
  401d58:	0f 84 81 00 00 00    	je     401ddf <notify_server+0x146>
  401d5e:	85 db                	test   %ebx,%ebx
  401d60:	74 6e                	je     401dd0 <notify_server+0x137>
  401d62:	4c 8d 8c 24 00 20 00 	lea    0x2000(%rsp),%r9
  401d69:	00 
  401d6a:	41 b8 00 00 00 00    	mov    $0x0,%r8d
  401d70:	48 89 e1             	mov    %rsp,%rcx
  401d73:	48 8b 15 f6 33 20 00 	mov    0x2033f6(%rip),%rdx        # 605170 <lab>
  401d7a:	48 8b 35 f7 33 20 00 	mov    0x2033f7(%rip),%rsi        # 605178 <course>
  401d81:	48 8b 3d d8 33 20 00 	mov    0x2033d8(%rip),%rdi        # 605160 <user_id>
  401d88:	e8 ef 10 00 00       	callq  402e7c <driver_post>
  401d8d:	85 c0                	test   %eax,%eax
  401d8f:	79 26                	jns    401db7 <notify_server+0x11e>
  401d91:	48 8d 94 24 00 20 00 	lea    0x2000(%rsp),%rdx
  401d98:	00 
  401d99:	be bf 34 40 00       	mov    $0x4034bf,%esi
  401d9e:	bf 01 00 00 00       	mov    $0x1,%edi
  401da3:	b8 00 00 00 00       	mov    $0x0,%eax
  401da8:	e8 53 f0 ff ff       	callq  400e00 <__printf_chk@plt>
  401dad:	bf 01 00 00 00       	mov    $0x1,%edi
  401db2:	e8 99 f0 ff ff       	callq  400e50 <exit@plt>
  401db7:	bf e8 35 40 00       	mov    $0x4035e8,%edi
  401dbc:	e8 0f ef ff ff       	callq  400cd0 <puts@plt>
  401dc1:	bf cb 34 40 00       	mov    $0x4034cb,%edi
  401dc6:	e8 05 ef ff ff       	callq  400cd0 <puts@plt>
  401dcb:	e9 9b 00 00 00       	jmpq   401e6b <notify_server+0x1d2>
  401dd0:	bf d5 34 40 00       	mov    $0x4034d5,%edi
  401dd5:	e8 f6 ee ff ff       	callq  400cd0 <puts@plt>
  401dda:	e9 8c 00 00 00       	jmpq   401e6b <notify_server+0x1d2>
  401ddf:	85 db                	test   %ebx,%ebx
  401de1:	74 07                	je     401dea <notify_server+0x151>
  401de3:	ba 99 34 40 00       	mov    $0x403499,%edx
  401de8:	eb 05                	jmp    401def <notify_server+0x156>
  401dea:	ba 9e 34 40 00       	mov    $0x40349e,%edx
  401def:	be 20 36 40 00       	mov    $0x403620,%esi
  401df4:	bf 01 00 00 00       	mov    $0x1,%edi
  401df9:	b8 00 00 00 00       	mov    $0x0,%eax
  401dfe:	e8 fd ef ff ff       	callq  400e00 <__printf_chk@plt>
  401e03:	48 8b 15 56 33 20 00 	mov    0x203356(%rip),%rdx        # 605160 <user_id>
  401e0a:	be dc 34 40 00       	mov    $0x4034dc,%esi
  401e0f:	bf 01 00 00 00       	mov    $0x1,%edi
  401e14:	b8 00 00 00 00       	mov    $0x0,%eax
  401e19:	e8 e2 ef ff ff       	callq  400e00 <__printf_chk@plt>
  401e1e:	48 8b 15 53 33 20 00 	mov    0x203353(%rip),%rdx        # 605178 <course>
  401e25:	be e9 34 40 00       	mov    $0x4034e9,%esi
  401e2a:	bf 01 00 00 00       	mov    $0x1,%edi
  401e2f:	b8 00 00 00 00       	mov    $0x0,%eax
  401e34:	e8 c7 ef ff ff       	callq  400e00 <__printf_chk@plt>
  401e39:	48 8b 15 30 33 20 00 	mov    0x203330(%rip),%rdx        # 605170 <lab>
  401e40:	be f5 34 40 00       	mov    $0x4034f5,%esi
  401e45:	bf 01 00 00 00       	mov    $0x1,%edi
  401e4a:	b8 00 00 00 00       	mov    $0x0,%eax
  401e4f:	e8 ac ef ff ff       	callq  400e00 <__printf_chk@plt>
  401e54:	48 89 e2             	mov    %rsp,%rdx
  401e57:	be fe 34 40 00       	mov    $0x4034fe,%esi
  401e5c:	bf 01 00 00 00       	mov    $0x1,%edi
  401e61:	b8 00 00 00 00       	mov    $0x0,%eax
  401e66:	e8 95 ef ff ff       	callq  400e00 <__printf_chk@plt>
  401e6b:	48 8b 84 24 08 40 00 	mov    0x4008(%rsp),%rax
  401e72:	00 
  401e73:	64 48 33 04 25 28 00 	xor    %fs:0x28,%rax
  401e7a:	00 00 
  401e7c:	74 05                	je     401e83 <notify_server+0x1ea>
  401e7e:	e8 6d ee ff ff       	callq  400cf0 <__stack_chk_fail@plt>
  401e83:	48 81 c4 10 40 00 00 	add    $0x4010,%rsp
  401e8a:	5b                   	pop    %rbx
  401e8b:	c3                   	retq   

0000000000401e8c <validate>:
  401e8c:	53                   	push   %rbx
  401e8d:	89 fb                	mov    %edi,%ebx
  401e8f:	83 3d 92 36 20 00 00 	cmpl   $0x0,0x203692(%rip)        # 605528 <is_checker>
  401e96:	74 6b                	je     401f03 <validate+0x77>
  401e98:	39 3d 7e 36 20 00    	cmp    %edi,0x20367e(%rip)        # 60551c <vlevel>
  401e9e:	74 14                	je     401eb4 <validate+0x28>
  401ea0:	bf 0a 35 40 00       	mov    $0x40350a,%edi
  401ea5:	e8 26 ee ff ff       	callq  400cd0 <puts@plt>
  401eaa:	b8 00 00 00 00       	mov    $0x0,%eax
  401eaf:	e8 5e fd ff ff       	callq  401c12 <check_fail>
  401eb4:	8b 15 5e 36 20 00    	mov    0x20365e(%rip),%edx        # 605518 <check_level>
  401eba:	39 d7                	cmp    %edx,%edi
  401ebc:	74 20                	je     401ede <validate+0x52>
  401ebe:	89 f9                	mov    %edi,%ecx
  401ec0:	be 48 36 40 00       	mov    $0x403648,%esi
  401ec5:	bf 01 00 00 00       	mov    $0x1,%edi
  401eca:	b8 00 00 00 00       	mov    $0x0,%eax
  401ecf:	e8 2c ef ff ff       	callq  400e00 <__printf_chk@plt>
  401ed4:	b8 00 00 00 00       	mov    $0x0,%eax
  401ed9:	e8 34 fd ff ff       	callq  401c12 <check_fail>
  401ede:	0f be 15 63 42 20 00 	movsbl 0x204263(%rip),%edx        # 606148 <target_prefix>
  401ee5:	41 b8 40 55 60 00    	mov    $0x605540,%r8d
  401eeb:	89 f9                	mov    %edi,%ecx
  401eed:	be 28 35 40 00       	mov    $0x403528,%esi
  401ef2:	bf 01 00 00 00       	mov    $0x1,%edi
  401ef7:	b8 00 00 00 00       	mov    $0x0,%eax
  401efc:	e8 ff ee ff ff       	callq  400e00 <__printf_chk@plt>
  401f01:	eb 49                	jmp    401f4c <validate+0xc0>
  401f03:	3b 3d 13 36 20 00    	cmp    0x203613(%rip),%edi        # 60551c <vlevel>
  401f09:	74 18                	je     401f23 <validate+0x97>
  401f0b:	bf 0a 35 40 00       	mov    $0x40350a,%edi
  401f10:	e8 bb ed ff ff       	callq  400cd0 <puts@plt>
  401f15:	89 de                	mov    %ebx,%esi
  401f17:	bf 00 00 00 00       	mov    $0x0,%edi
  401f1c:	e8 78 fd ff ff       	callq  401c99 <notify_server>
  401f21:	eb 29                	jmp    401f4c <validate+0xc0>
  401f23:	0f be 0d 1e 42 20 00 	movsbl 0x20421e(%rip),%ecx        # 606148 <target_prefix>
  401f2a:	89 fa                	mov    %edi,%edx
  401f2c:	be 70 36 40 00       	mov    $0x403670,%esi
  401f31:	bf 01 00 00 00       	mov    $0x1,%edi
  401f36:	b8 00 00 00 00       	mov    $0x0,%eax
  401f3b:	e8 c0 ee ff ff       	callq  400e00 <__printf_chk@plt>
  401f40:	89 de                	mov    %ebx,%esi
  401f42:	bf 01 00 00 00       	mov    $0x1,%edi
  401f47:	e8 4d fd ff ff       	callq  401c99 <notify_server>
  401f4c:	5b                   	pop    %rbx
  401f4d:	c3                   	retq   

0000000000401f4e <fail>:
  401f4e:	48 83 ec 08          	sub    $0x8,%rsp
  401f52:	83 3d cf 35 20 00 00 	cmpl   $0x0,0x2035cf(%rip)        # 605528 <is_checker>
  401f59:	74 0a                	je     401f65 <fail+0x17>
  401f5b:	b8 00 00 00 00       	mov    $0x0,%eax
  401f60:	e8 ad fc ff ff       	callq  401c12 <check_fail>
  401f65:	89 fe                	mov    %edi,%esi
  401f67:	bf 00 00 00 00       	mov    $0x0,%edi
  401f6c:	e8 28 fd ff ff       	callq  401c99 <notify_server>
  401f71:	48 83 c4 08          	add    $0x8,%rsp
  401f75:	c3                   	retq   

0000000000401f76 <bushandler>:
  401f76:	48 83 ec 08          	sub    $0x8,%rsp
  401f7a:	83 3d a7 35 20 00 00 	cmpl   $0x0,0x2035a7(%rip)        # 605528 <is_checker>
  401f81:	74 14                	je     401f97 <bushandler+0x21>
  401f83:	bf 3d 35 40 00       	mov    $0x40353d,%edi
  401f88:	e8 43 ed ff ff       	callq  400cd0 <puts@plt>
  401f8d:	b8 00 00 00 00       	mov    $0x0,%eax
  401f92:	e8 7b fc ff ff       	callq  401c12 <check_fail>
  401f97:	bf a8 36 40 00       	mov    $0x4036a8,%edi
  401f9c:	e8 2f ed ff ff       	callq  400cd0 <puts@plt>
  401fa1:	bf 47 35 40 00       	mov    $0x403547,%edi
  401fa6:	e8 25 ed ff ff       	callq  400cd0 <puts@plt>
  401fab:	be 00 00 00 00       	mov    $0x0,%esi
  401fb0:	bf 00 00 00 00       	mov    $0x0,%edi
  401fb5:	e8 df fc ff ff       	callq  401c99 <notify_server>
  401fba:	bf 01 00 00 00       	mov    $0x1,%edi
  401fbf:	e8 8c ee ff ff       	callq  400e50 <exit@plt>

0000000000401fc4 <seghandler>:
  401fc4:	48 83 ec 08          	sub    $0x8,%rsp
  401fc8:	83 3d 59 35 20 00 00 	cmpl   $0x0,0x203559(%rip)        # 605528 <is_checker>
  401fcf:	74 14                	je     401fe5 <seghandler+0x21>
  401fd1:	bf 5d 35 40 00       	mov    $0x40355d,%edi
  401fd6:	e8 f5 ec ff ff       	callq  400cd0 <puts@plt>
  401fdb:	b8 00 00 00 00       	mov    $0x0,%eax
  401fe0:	e8 2d fc ff ff       	callq  401c12 <check_fail>
  401fe5:	bf c8 36 40 00       	mov    $0x4036c8,%edi
  401fea:	e8 e1 ec ff ff       	callq  400cd0 <puts@plt>
  401fef:	bf 47 35 40 00       	mov    $0x403547,%edi
  401ff4:	e8 d7 ec ff ff       	callq  400cd0 <puts@plt>
  401ff9:	be 00 00 00 00       	mov    $0x0,%esi
  401ffe:	bf 00 00 00 00       	mov    $0x0,%edi
  402003:	e8 91 fc ff ff       	callq  401c99 <notify_server>
  402008:	bf 01 00 00 00       	mov    $0x1,%edi
  40200d:	e8 3e ee ff ff       	callq  400e50 <exit@plt>

0000000000402012 <illegalhandler>:
  402012:	48 83 ec 08          	sub    $0x8,%rsp
  402016:	83 3d 0b 35 20 00 00 	cmpl   $0x0,0x20350b(%rip)        # 605528 <is_checker>
  40201d:	74 14                	je     402033 <illegalhandler+0x21>
  40201f:	bf 70 35 40 00       	mov    $0x403570,%edi
  402024:	e8 a7 ec ff ff       	callq  400cd0 <puts@plt>
  402029:	b8 00 00 00 00       	mov    $0x0,%eax
  40202e:	e8 df fb ff ff       	callq  401c12 <check_fail>
  402033:	bf f0 36 40 00       	mov    $0x4036f0,%edi
  402038:	e8 93 ec ff ff       	callq  400cd0 <puts@plt>
  40203d:	bf 47 35 40 00       	mov    $0x403547,%edi
  402042:	e8 89 ec ff ff       	callq  400cd0 <puts@plt>
  402047:	be 00 00 00 00       	mov    $0x0,%esi
  40204c:	bf 00 00 00 00       	mov    $0x0,%edi
  402051:	e8 43 fc ff ff       	callq  401c99 <notify_server>
  402056:	bf 01 00 00 00       	mov    $0x1,%edi
  40205b:	e8 f0 ed ff ff       	callq  400e50 <exit@plt>

0000000000402060 <sigalrmhandler>:
  402060:	48 83 ec 08          	sub    $0x8,%rsp
  402064:	83 3d bd 34 20 00 00 	cmpl   $0x0,0x2034bd(%rip)        # 605528 <is_checker>
  40206b:	74 14                	je     402081 <sigalrmhandler+0x21>
  40206d:	bf 84 35 40 00       	mov    $0x403584,%edi
  402072:	e8 59 ec ff ff       	callq  400cd0 <puts@plt>
  402077:	b8 00 00 00 00       	mov    $0x0,%eax
  40207c:	e8 91 fb ff ff       	callq  401c12 <check_fail>
  402081:	ba 05 00 00 00       	mov    $0x5,%edx
  402086:	be 20 37 40 00       	mov    $0x403720,%esi
  40208b:	bf 01 00 00 00       	mov    $0x1,%edi
  402090:	b8 00 00 00 00       	mov    $0x0,%eax
  402095:	e8 66 ed ff ff       	callq  400e00 <__printf_chk@plt>
  40209a:	be 00 00 00 00       	mov    $0x0,%esi
  40209f:	bf 00 00 00 00       	mov    $0x0,%edi
  4020a4:	e8 f0 fb ff ff       	callq  401c99 <notify_server>
  4020a9:	bf 01 00 00 00       	mov    $0x1,%edi
  4020ae:	e8 9d ed ff ff       	callq  400e50 <exit@plt>

00000000004020b3 <launch>:
  4020b3:	55                   	push   %rbp
  4020b4:	48 89 e5             	mov    %rsp,%rbp
  4020b7:	48 83 ec 10          	sub    $0x10,%rsp
  4020bb:	48 89 fa             	mov    %rdi,%rdx
  4020be:	64 48 8b 04 25 28 00 	mov    %fs:0x28,%rax
  4020c5:	00 00 
  4020c7:	48 89 45 f8          	mov    %rax,-0x8(%rbp)
  4020cb:	31 c0                	xor    %eax,%eax
  4020cd:	48 8d 47 1e          	lea    0x1e(%rdi),%rax
  4020d1:	48 83 e0 f0          	and    $0xfffffffffffffff0,%rax
  4020d5:	48 29 c4             	sub    %rax,%rsp
  4020d8:	48 8d 7c 24 0f       	lea    0xf(%rsp),%rdi
  4020dd:	48 83 e7 f0          	and    $0xfffffffffffffff0,%rdi
  4020e1:	be f4 00 00 00       	mov    $0xf4,%esi
  4020e6:	e8 25 ec ff ff       	callq  400d10 <memset@plt>
  4020eb:	48 8b 05 ce 33 20 00 	mov    0x2033ce(%rip),%rax        # 6054c0 <stdin@@GLIBC_2.2.5>
  4020f2:	48 39 05 17 34 20 00 	cmp    %rax,0x203417(%rip)        # 605510 <infile>
  4020f9:	75 14                	jne    40210f <launch+0x5c>
  4020fb:	be 8c 35 40 00       	mov    $0x40358c,%esi
  402100:	bf 01 00 00 00       	mov    $0x1,%edi
  402105:	b8 00 00 00 00       	mov    $0x0,%eax
  40210a:	e8 f1 ec ff ff       	callq  400e00 <__printf_chk@plt>
  40210f:	c7 05 03 34 20 00 00 	movl   $0x0,0x203403(%rip)        # 60551c <vlevel>
  402116:	00 00 00 
  402119:	b8 00 00 00 00       	mov    $0x0,%eax
  40211e:	e8 35 f9 ff ff       	callq  401a58 <test>
  402123:	83 3d fe 33 20 00 00 	cmpl   $0x0,0x2033fe(%rip)        # 605528 <is_checker>
  40212a:	74 14                	je     402140 <launch+0x8d>
  40212c:	bf 99 35 40 00       	mov    $0x403599,%edi
  402131:	e8 9a eb ff ff       	callq  400cd0 <puts@plt>
  402136:	b8 00 00 00 00       	mov    $0x0,%eax
  40213b:	e8 d2 fa ff ff       	callq  401c12 <check_fail>
  402140:	bf a4 35 40 00       	mov    $0x4035a4,%edi
  402145:	e8 86 eb ff ff       	callq  400cd0 <puts@plt>
  40214a:	48 8b 45 f8          	mov    -0x8(%rbp),%rax
  40214e:	64 48 33 04 25 28 00 	xor    %fs:0x28,%rax
  402155:	00 00 
  402157:	74 05                	je     40215e <launch+0xab>
  402159:	e8 92 eb ff ff       	callq  400cf0 <__stack_chk_fail@plt>
  40215e:	c9                   	leaveq 
  40215f:	c3                   	retq   

0000000000402160 <stable_launch>:
  402160:	53                   	push   %rbx
  402161:	48 89 3d a0 33 20 00 	mov    %rdi,0x2033a0(%rip)        # 605508 <global_offset>
  402168:	41 b9 00 00 00 00    	mov    $0x0,%r9d
  40216e:	41 b8 00 00 00 00    	mov    $0x0,%r8d
  402174:	b9 32 01 00 00       	mov    $0x132,%ecx
  402179:	ba 07 00 00 00       	mov    $0x7,%edx
  40217e:	be 00 00 10 00       	mov    $0x100000,%esi
  402183:	bf 00 60 58 55       	mov    $0x55586000,%edi
  402188:	e8 73 eb ff ff       	callq  400d00 <mmap@plt>
  40218d:	48 89 c3             	mov    %rax,%rbx
  402190:	48 3d 00 60 58 55    	cmp    $0x55586000,%rax
  402196:	74 37                	je     4021cf <stable_launch+0x6f>
  402198:	be 00 00 10 00       	mov    $0x100000,%esi
  40219d:	48 89 c7             	mov    %rax,%rdi
  4021a0:	e8 4b ec ff ff       	callq  400df0 <munmap@plt>
  4021a5:	b9 00 60 58 55       	mov    $0x55586000,%ecx
  4021aa:	ba 58 37 40 00       	mov    $0x403758,%edx
  4021af:	be 01 00 00 00       	mov    $0x1,%esi
  4021b4:	48 8b 3d 25 33 20 00 	mov    0x203325(%rip),%rdi        # 6054e0 <stderr@@GLIBC_2.2.5>
  4021bb:	b8 00 00 00 00       	mov    $0x0,%eax
  4021c0:	e8 ab ec ff ff       	callq  400e70 <__fprintf_chk@plt>
  4021c5:	bf 01 00 00 00       	mov    $0x1,%edi
  4021ca:	e8 81 ec ff ff       	callq  400e50 <exit@plt>
  4021cf:	48 8d 90 f8 ff 0f 00 	lea    0xffff8(%rax),%rdx
  4021d6:	48 89 15 73 3f 20 00 	mov    %rdx,0x203f73(%rip)        # 606150 <stack_top>
  4021dd:	48 89 e0             	mov    %rsp,%rax
  4021e0:	48 89 d4             	mov    %rdx,%rsp
  4021e3:	48 89 c2             	mov    %rax,%rdx
  4021e6:	48 89 15 13 33 20 00 	mov    %rdx,0x203313(%rip)        # 605500 <global_save_stack>
  4021ed:	48 8b 3d 14 33 20 00 	mov    0x203314(%rip),%rdi        # 605508 <global_offset>
  4021f4:	e8 ba fe ff ff       	callq  4020b3 <launch>
  4021f9:	48 8b 05 00 33 20 00 	mov    0x203300(%rip),%rax        # 605500 <global_save_stack>
  402200:	48 89 c4             	mov    %rax,%rsp
  402203:	be 00 00 10 00       	mov    $0x100000,%esi
  402208:	48 89 df             	mov    %rbx,%rdi
  40220b:	e8 e0 eb ff ff       	callq  400df0 <munmap@plt>
  402210:	5b                   	pop    %rbx
  402211:	c3                   	retq   

0000000000402212 <rio_readinitb>:
  402212:	89 37                	mov    %esi,(%rdi)
  402214:	c7 47 04 00 00 00 00 	movl   $0x0,0x4(%rdi)
  40221b:	48 8d 47 10          	lea    0x10(%rdi),%rax
  40221f:	48 89 47 08          	mov    %rax,0x8(%rdi)
  402223:	c3                   	retq   

0000000000402224 <sigalrm_handler>:
  402224:	48 83 ec 08          	sub    $0x8,%rsp
  402228:	b9 00 00 00 00       	mov    $0x0,%ecx
  40222d:	ba 90 37 40 00       	mov    $0x403790,%edx
  402232:	be 01 00 00 00       	mov    $0x1,%esi
  402237:	48 8b 3d a2 32 20 00 	mov    0x2032a2(%rip),%rdi        # 6054e0 <stderr@@GLIBC_2.2.5>
  40223e:	b8 00 00 00 00       	mov    $0x0,%eax
  402243:	e8 28 ec ff ff       	callq  400e70 <__fprintf_chk@plt>
  402248:	bf 01 00 00 00       	mov    $0x1,%edi
  40224d:	e8 fe eb ff ff       	callq  400e50 <exit@plt>

0000000000402252 <rio_writen>:
  402252:	41 55                	push   %r13
  402254:	41 54                	push   %r12
  402256:	55                   	push   %rbp
  402257:	53                   	push   %rbx
  402258:	48 83 ec 08          	sub    $0x8,%rsp
  40225c:	41 89 fc             	mov    %edi,%r12d
  40225f:	48 89 f5             	mov    %rsi,%rbp
  402262:	49 89 d5             	mov    %rdx,%r13
  402265:	48 89 d3             	mov    %rdx,%rbx
  402268:	eb 28                	jmp    402292 <rio_writen+0x40>
  40226a:	48 89 da             	mov    %rbx,%rdx
  40226d:	48 89 ee             	mov    %rbp,%rsi
  402270:	44 89 e7             	mov    %r12d,%edi
  402273:	e8 68 ea ff ff       	callq  400ce0 <write@plt>
  402278:	48 85 c0             	test   %rax,%rax
  40227b:	7f 0f                	jg     40228c <rio_writen+0x3a>
  40227d:	e8 0e ea ff ff       	callq  400c90 <__errno_location@plt>
  402282:	83 38 04             	cmpl   $0x4,(%rax)
  402285:	75 15                	jne    40229c <rio_writen+0x4a>
  402287:	b8 00 00 00 00       	mov    $0x0,%eax
  40228c:	48 29 c3             	sub    %rax,%rbx
  40228f:	48 01 c5             	add    %rax,%rbp
  402292:	48 85 db             	test   %rbx,%rbx
  402295:	75 d3                	jne    40226a <rio_writen+0x18>
  402297:	4c 89 e8             	mov    %r13,%rax
  40229a:	eb 07                	jmp    4022a3 <rio_writen+0x51>
  40229c:	48 c7 c0 ff ff ff ff 	mov    $0xffffffffffffffff,%rax
  4022a3:	48 83 c4 08          	add    $0x8,%rsp
  4022a7:	5b                   	pop    %rbx
  4022a8:	5d                   	pop    %rbp
  4022a9:	41 5c                	pop    %r12
  4022ab:	41 5d                	pop    %r13
  4022ad:	c3                   	retq   

00000000004022ae <rio_read>:
  4022ae:	41 55                	push   %r13
  4022b0:	41 54                	push   %r12
  4022b2:	55                   	push   %rbp
  4022b3:	53                   	push   %rbx
  4022b4:	48 83 ec 08          	sub    $0x8,%rsp
  4022b8:	48 89 fb             	mov    %rdi,%rbx
  4022bb:	49 89 f5             	mov    %rsi,%r13
  4022be:	49 89 d4             	mov    %rdx,%r12
  4022c1:	eb 2e                	jmp    4022f1 <rio_read+0x43>
  4022c3:	48 8d 6b 10          	lea    0x10(%rbx),%rbp
  4022c7:	8b 3b                	mov    (%rbx),%edi
  4022c9:	ba 00 20 00 00       	mov    $0x2000,%edx
  4022ce:	48 89 ee             	mov    %rbp,%rsi
  4022d1:	e8 6a ea ff ff       	callq  400d40 <read@plt>
  4022d6:	89 43 04             	mov    %eax,0x4(%rbx)
  4022d9:	85 c0                	test   %eax,%eax
  4022db:	79 0c                	jns    4022e9 <rio_read+0x3b>
  4022dd:	e8 ae e9 ff ff       	callq  400c90 <__errno_location@plt>
  4022e2:	83 38 04             	cmpl   $0x4,(%rax)
  4022e5:	74 0a                	je     4022f1 <rio_read+0x43>
  4022e7:	eb 37                	jmp    402320 <rio_read+0x72>
  4022e9:	85 c0                	test   %eax,%eax
  4022eb:	74 3c                	je     402329 <rio_read+0x7b>
  4022ed:	48 89 6b 08          	mov    %rbp,0x8(%rbx)
  4022f1:	8b 6b 04             	mov    0x4(%rbx),%ebp
  4022f4:	85 ed                	test   %ebp,%ebp
  4022f6:	7e cb                	jle    4022c3 <rio_read+0x15>
  4022f8:	89 e8                	mov    %ebp,%eax
  4022fa:	49 39 c4             	cmp    %rax,%r12
  4022fd:	77 03                	ja     402302 <rio_read+0x54>
  4022ff:	44 89 e5             	mov    %r12d,%ebp
  402302:	4c 63 e5             	movslq %ebp,%r12
  402305:	48 8b 73 08          	mov    0x8(%rbx),%rsi
  402309:	4c 89 e2             	mov    %r12,%rdx
  40230c:	4c 89 ef             	mov    %r13,%rdi
  40230f:	e8 8c ea ff ff       	callq  400da0 <memcpy@plt>
  402314:	4c 01 63 08          	add    %r12,0x8(%rbx)
  402318:	29 6b 04             	sub    %ebp,0x4(%rbx)
  40231b:	4c 89 e0             	mov    %r12,%rax
  40231e:	eb 0e                	jmp    40232e <rio_read+0x80>
  402320:	48 c7 c0 ff ff ff ff 	mov    $0xffffffffffffffff,%rax
  402327:	eb 05                	jmp    40232e <rio_read+0x80>
  402329:	b8 00 00 00 00       	mov    $0x0,%eax
  40232e:	48 83 c4 08          	add    $0x8,%rsp
  402332:	5b                   	pop    %rbx
  402333:	5d                   	pop    %rbp
  402334:	41 5c                	pop    %r12
  402336:	41 5d                	pop    %r13
  402338:	c3                   	retq   

0000000000402339 <rio_readlineb>:
  402339:	41 55                	push   %r13
  40233b:	41 54                	push   %r12
  40233d:	55                   	push   %rbp
  40233e:	53                   	push   %rbx
  40233f:	48 83 ec 18          	sub    $0x18,%rsp
  402343:	49 89 fd             	mov    %rdi,%r13
  402346:	48 89 f5             	mov    %rsi,%rbp
  402349:	49 89 d4             	mov    %rdx,%r12
  40234c:	64 48 8b 04 25 28 00 	mov    %fs:0x28,%rax
  402353:	00 00 
  402355:	48 89 44 24 08       	mov    %rax,0x8(%rsp)
  40235a:	31 c0                	xor    %eax,%eax
  40235c:	bb 01 00 00 00       	mov    $0x1,%ebx
  402361:	eb 3f                	jmp    4023a2 <rio_readlineb+0x69>
  402363:	ba 01 00 00 00       	mov    $0x1,%edx
  402368:	48 8d 74 24 07       	lea    0x7(%rsp),%rsi
  40236d:	4c 89 ef             	mov    %r13,%rdi
  402370:	e8 39 ff ff ff       	callq  4022ae <rio_read>
  402375:	83 f8 01             	cmp    $0x1,%eax
  402378:	75 15                	jne    40238f <rio_readlineb+0x56>
  40237a:	48 8d 45 01          	lea    0x1(%rbp),%rax
  40237e:	0f b6 54 24 07       	movzbl 0x7(%rsp),%edx
  402383:	88 55 00             	mov    %dl,0x0(%rbp)
  402386:	80 7c 24 07 0a       	cmpb   $0xa,0x7(%rsp)
  40238b:	75 0e                	jne    40239b <rio_readlineb+0x62>
  40238d:	eb 1a                	jmp    4023a9 <rio_readlineb+0x70>
  40238f:	85 c0                	test   %eax,%eax
  402391:	75 22                	jne    4023b5 <rio_readlineb+0x7c>
  402393:	48 83 fb 01          	cmp    $0x1,%rbx
  402397:	75 13                	jne    4023ac <rio_readlineb+0x73>
  402399:	eb 23                	jmp    4023be <rio_readlineb+0x85>
  40239b:	48 83 c3 01          	add    $0x1,%rbx
  40239f:	48 89 c5             	mov    %rax,%rbp
  4023a2:	4c 39 e3             	cmp    %r12,%rbx
  4023a5:	72 bc                	jb     402363 <rio_readlineb+0x2a>
  4023a7:	eb 03                	jmp    4023ac <rio_readlineb+0x73>
  4023a9:	48 89 c5             	mov    %rax,%rbp
  4023ac:	c6 45 00 00          	movb   $0x0,0x0(%rbp)
  4023b0:	48 89 d8             	mov    %rbx,%rax
  4023b3:	eb 0e                	jmp    4023c3 <rio_readlineb+0x8a>
  4023b5:	48 c7 c0 ff ff ff ff 	mov    $0xffffffffffffffff,%rax
  4023bc:	eb 05                	jmp    4023c3 <rio_readlineb+0x8a>
  4023be:	b8 00 00 00 00       	mov    $0x0,%eax
  4023c3:	48 8b 4c 24 08       	mov    0x8(%rsp),%rcx
  4023c8:	64 48 33 0c 25 28 00 	xor    %fs:0x28,%rcx
  4023cf:	00 00 
  4023d1:	74 05                	je     4023d8 <rio_readlineb+0x9f>
  4023d3:	e8 18 e9 ff ff       	callq  400cf0 <__stack_chk_fail@plt>
  4023d8:	48 83 c4 18          	add    $0x18,%rsp
  4023dc:	5b                   	pop    %rbx
  4023dd:	5d                   	pop    %rbp
  4023de:	41 5c                	pop    %r12
  4023e0:	41 5d                	pop    %r13
  4023e2:	c3                   	retq   

00000000004023e3 <urlencode>:
  4023e3:	41 54                	push   %r12
  4023e5:	55                   	push   %rbp
  4023e6:	53                   	push   %rbx
  4023e7:	48 83 ec 10          	sub    $0x10,%rsp
  4023eb:	48 89 fb             	mov    %rdi,%rbx
  4023ee:	48 89 f5             	mov    %rsi,%rbp
  4023f1:	64 48 8b 04 25 28 00 	mov    %fs:0x28,%rax
  4023f8:	00 00 
  4023fa:	48 89 44 24 08       	mov    %rax,0x8(%rsp)
  4023ff:	31 c0                	xor    %eax,%eax
  402401:	48 c7 c1 ff ff ff ff 	mov    $0xffffffffffffffff,%rcx
  402408:	f2 ae                	repnz scas %es:(%rdi),%al
  40240a:	48 f7 d1             	not    %rcx
  40240d:	8d 41 ff             	lea    -0x1(%rcx),%eax
  402410:	e9 aa 00 00 00       	jmpq   4024bf <urlencode+0xdc>
  402415:	44 0f b6 03          	movzbl (%rbx),%r8d
  402419:	41 80 f8 2a          	cmp    $0x2a,%r8b
  40241d:	0f 94 c2             	sete   %dl
  402420:	41 80 f8 2d          	cmp    $0x2d,%r8b
  402424:	0f 94 c0             	sete   %al
  402427:	08 c2                	or     %al,%dl
  402429:	75 24                	jne    40244f <urlencode+0x6c>
  40242b:	41 80 f8 2e          	cmp    $0x2e,%r8b
  40242f:	74 1e                	je     40244f <urlencode+0x6c>
  402431:	41 80 f8 5f          	cmp    $0x5f,%r8b
  402435:	74 18                	je     40244f <urlencode+0x6c>
  402437:	41 8d 40 d0          	lea    -0x30(%r8),%eax
  40243b:	3c 09                	cmp    $0x9,%al
  40243d:	76 10                	jbe    40244f <urlencode+0x6c>
  40243f:	41 8d 40 bf          	lea    -0x41(%r8),%eax
  402443:	3c 19                	cmp    $0x19,%al
  402445:	76 08                	jbe    40244f <urlencode+0x6c>
  402447:	41 8d 40 9f          	lea    -0x61(%r8),%eax
  40244b:	3c 19                	cmp    $0x19,%al
  40244d:	77 0a                	ja     402459 <urlencode+0x76>
  40244f:	44 88 45 00          	mov    %r8b,0x0(%rbp)
  402453:	48 8d 6d 01          	lea    0x1(%rbp),%rbp
  402457:	eb 5f                	jmp    4024b8 <urlencode+0xd5>
  402459:	41 80 f8 20          	cmp    $0x20,%r8b
  40245d:	75 0a                	jne    402469 <urlencode+0x86>
  40245f:	c6 45 00 2b          	movb   $0x2b,0x0(%rbp)
  402463:	48 8d 6d 01          	lea    0x1(%rbp),%rbp
  402467:	eb 4f                	jmp    4024b8 <urlencode+0xd5>
  402469:	41 8d 40 e0          	lea    -0x20(%r8),%eax
  40246d:	3c 5f                	cmp    $0x5f,%al
  40246f:	0f 96 c2             	setbe  %dl
  402472:	41 80 f8 09          	cmp    $0x9,%r8b
  402476:	0f 94 c0             	sete   %al
  402479:	08 c2                	or     %al,%dl
  40247b:	74 50                	je     4024cd <urlencode+0xea>
  40247d:	45 0f b6 c0          	movzbl %r8b,%r8d
  402481:	b9 28 38 40 00       	mov    $0x403828,%ecx
  402486:	ba 08 00 00 00       	mov    $0x8,%edx
  40248b:	be 01 00 00 00       	mov    $0x1,%esi
  402490:	48 89 e7             	mov    %rsp,%rdi
  402493:	b8 00 00 00 00       	mov    $0x0,%eax
  402498:	e8 e3 e9 ff ff       	callq  400e80 <__sprintf_chk@plt>
  40249d:	0f b6 04 24          	movzbl (%rsp),%eax
  4024a1:	88 45 00             	mov    %al,0x0(%rbp)
  4024a4:	0f b6 44 24 01       	movzbl 0x1(%rsp),%eax
  4024a9:	88 45 01             	mov    %al,0x1(%rbp)
  4024ac:	0f b6 44 24 02       	movzbl 0x2(%rsp),%eax
  4024b1:	88 45 02             	mov    %al,0x2(%rbp)
  4024b4:	48 8d 6d 03          	lea    0x3(%rbp),%rbp
  4024b8:	48 83 c3 01          	add    $0x1,%rbx
  4024bc:	44 89 e0             	mov    %r12d,%eax
  4024bf:	44 8d 60 ff          	lea    -0x1(%rax),%r12d
  4024c3:	85 c0                	test   %eax,%eax
  4024c5:	0f 85 4a ff ff ff    	jne    402415 <urlencode+0x32>
  4024cb:	eb 05                	jmp    4024d2 <urlencode+0xef>
  4024cd:	b8 ff ff ff ff       	mov    $0xffffffff,%eax
  4024d2:	48 8b 74 24 08       	mov    0x8(%rsp),%rsi
  4024d7:	64 48 33 34 25 28 00 	xor    %fs:0x28,%rsi
  4024de:	00 00 
  4024e0:	74 05                	je     4024e7 <urlencode+0x104>
  4024e2:	e8 09 e8 ff ff       	callq  400cf0 <__stack_chk_fail@plt>
  4024e7:	48 83 c4 10          	add    $0x10,%rsp
  4024eb:	5b                   	pop    %rbx
  4024ec:	5d                   	pop    %rbp
  4024ed:	41 5c                	pop    %r12
  4024ef:	c3                   	retq   

00000000004024f0 <submitr>:
  4024f0:	41 57                	push   %r15
  4024f2:	41 56                	push   %r14
  4024f4:	41 55                	push   %r13
  4024f6:	41 54                	push   %r12
  4024f8:	55                   	push   %rbp
  4024f9:	53                   	push   %rbx
  4024fa:	48 81 ec 58 a0 00 00 	sub    $0xa058,%rsp
  402501:	49 89 fc             	mov    %rdi,%r12
  402504:	89 74 24 04          	mov    %esi,0x4(%rsp)
  402508:	49 89 d7             	mov    %rdx,%r15
  40250b:	49 89 ce             	mov    %rcx,%r14
  40250e:	4c 89 44 24 08       	mov    %r8,0x8(%rsp)
  402513:	4d 89 cd             	mov    %r9,%r13
  402516:	48 8b 9c 24 90 a0 00 	mov    0xa090(%rsp),%rbx
  40251d:	00 
  40251e:	64 48 8b 04 25 28 00 	mov    %fs:0x28,%rax
  402525:	00 00 
  402527:	48 89 84 24 48 a0 00 	mov    %rax,0xa048(%rsp)
  40252e:	00 
  40252f:	31 c0                	xor    %eax,%eax
  402531:	c7 44 24 1c 00 00 00 	movl   $0x0,0x1c(%rsp)
  402538:	00 
  402539:	ba 00 00 00 00       	mov    $0x0,%edx
  40253e:	be 01 00 00 00       	mov    $0x1,%esi
  402543:	bf 02 00 00 00       	mov    $0x2,%edi
  402548:	e8 43 e9 ff ff       	callq  400e90 <socket@plt>
  40254d:	85 c0                	test   %eax,%eax
  40254f:	79 4e                	jns    40259f <submitr+0xaf>
  402551:	48 b8 45 72 72 6f 72 	movabs $0x43203a726f727245,%rax
  402558:	3a 20 43 
  40255b:	48 89 03             	mov    %rax,(%rbx)
  40255e:	48 b8 6c 69 65 6e 74 	movabs $0x6e7520746e65696c,%rax
  402565:	20 75 6e 
  402568:	48 89 43 08          	mov    %rax,0x8(%rbx)
  40256c:	48 b8 61 62 6c 65 20 	movabs $0x206f7420656c6261,%rax
  402573:	74 6f 20 
  402576:	48 89 43 10          	mov    %rax,0x10(%rbx)
  40257a:	48 b8 63 72 65 61 74 	movabs $0x7320657461657263,%rax
  402581:	65 20 73 
  402584:	48 89 43 18          	mov    %rax,0x18(%rbx)
  402588:	c7 43 20 6f 63 6b 65 	movl   $0x656b636f,0x20(%rbx)
  40258f:	66 c7 43 24 74 00    	movw   $0x74,0x24(%rbx)
  402595:	b8 ff ff ff ff       	mov    $0xffffffff,%eax
  40259a:	e9 97 06 00 00       	jmpq   402c36 <submitr+0x746>
  40259f:	89 c5                	mov    %eax,%ebp
  4025a1:	4c 89 e7             	mov    %r12,%rdi
  4025a4:	e8 c7 e7 ff ff       	callq  400d70 <gethostbyname@plt>
  4025a9:	48 85 c0             	test   %rax,%rax
  4025ac:	75 67                	jne    402615 <submitr+0x125>
  4025ae:	48 b8 45 72 72 6f 72 	movabs $0x44203a726f727245,%rax
  4025b5:	3a 20 44 
  4025b8:	48 89 03             	mov    %rax,(%rbx)
  4025bb:	48 b8 4e 53 20 69 73 	movabs $0x6e7520736920534e,%rax
  4025c2:	20 75 6e 
  4025c5:	48 89 43 08          	mov    %rax,0x8(%rbx)
  4025c9:	48 b8 61 62 6c 65 20 	movabs $0x206f7420656c6261,%rax
  4025d0:	74 6f 20 
  4025d3:	48 89 43 10          	mov    %rax,0x10(%rbx)
  4025d7:	48 b8 72 65 73 6f 6c 	movabs $0x2065766c6f736572,%rax
  4025de:	76 65 20 
  4025e1:	48 89 43 18          	mov    %rax,0x18(%rbx)
  4025e5:	48 b8 73 65 72 76 65 	movabs $0x6120726576726573,%rax
  4025ec:	72 20 61 
  4025ef:	48 89 43 20          	mov    %rax,0x20(%rbx)
  4025f3:	c7 43 28 64 64 72 65 	movl   $0x65726464,0x28(%rbx)
  4025fa:	66 c7 43 2c 73 73    	movw   $0x7373,0x2c(%rbx)
  402600:	c6 43 2e 00          	movb   $0x0,0x2e(%rbx)
  402604:	89 ef                	mov    %ebp,%edi
  402606:	e8 25 e7 ff ff       	callq  400d30 <close@plt>
  40260b:	b8 ff ff ff ff       	mov    $0xffffffff,%eax
  402610:	e9 21 06 00 00       	jmpq   402c36 <submitr+0x746>
  402615:	48 c7 44 24 20 00 00 	movq   $0x0,0x20(%rsp)
  40261c:	00 00 
  40261e:	48 c7 44 24 28 00 00 	movq   $0x0,0x28(%rsp)
  402625:	00 00 
  402627:	66 c7 44 24 20 02 00 	movw   $0x2,0x20(%rsp)
  40262e:	48 63 50 14          	movslq 0x14(%rax),%rdx
  402632:	48 8b 40 18          	mov    0x18(%rax),%rax
  402636:	48 8b 30             	mov    (%rax),%rsi
  402639:	48 8d 7c 24 24       	lea    0x24(%rsp),%rdi
  40263e:	b9 0c 00 00 00       	mov    $0xc,%ecx
  402643:	e8 38 e7 ff ff       	callq  400d80 <__memmove_chk@plt>
  402648:	0f b7 44 24 04       	movzwl 0x4(%rsp),%eax
  40264d:	66 c1 c8 08          	ror    $0x8,%ax
  402651:	66 89 44 24 22       	mov    %ax,0x22(%rsp)
  402656:	ba 10 00 00 00       	mov    $0x10,%edx
  40265b:	48 8d 74 24 20       	lea    0x20(%rsp),%rsi
  402660:	89 ef                	mov    %ebp,%edi
  402662:	e8 f9 e7 ff ff       	callq  400e60 <connect@plt>
  402667:	85 c0                	test   %eax,%eax
  402669:	79 59                	jns    4026c4 <submitr+0x1d4>
  40266b:	48 b8 45 72 72 6f 72 	movabs $0x55203a726f727245,%rax
  402672:	3a 20 55 
  402675:	48 89 03             	mov    %rax,(%rbx)
  402678:	48 b8 6e 61 62 6c 65 	movabs $0x6f7420656c62616e,%rax
  40267f:	20 74 6f 
  402682:	48 89 43 08          	mov    %rax,0x8(%rbx)
  402686:	48 b8 20 63 6f 6e 6e 	movabs $0x7463656e6e6f6320,%rax
  40268d:	65 63 74 
  402690:	48 89 43 10          	mov    %rax,0x10(%rbx)
  402694:	48 b8 20 74 6f 20 74 	movabs $0x20656874206f7420,%rax
  40269b:	68 65 20 
  40269e:	48 89 43 18          	mov    %rax,0x18(%rbx)
  4026a2:	c7 43 20 73 65 72 76 	movl   $0x76726573,0x20(%rbx)
  4026a9:	66 c7 43 24 65 72    	movw   $0x7265,0x24(%rbx)
  4026af:	c6 43 26 00          	movb   $0x0,0x26(%rbx)
  4026b3:	89 ef                	mov    %ebp,%edi
  4026b5:	e8 76 e6 ff ff       	callq  400d30 <close@plt>
  4026ba:	b8 ff ff ff ff       	mov    $0xffffffff,%eax
  4026bf:	e9 72 05 00 00       	jmpq   402c36 <submitr+0x746>
  4026c4:	48 c7 c6 ff ff ff ff 	mov    $0xffffffffffffffff,%rsi
  4026cb:	b8 00 00 00 00       	mov    $0x0,%eax
  4026d0:	48 89 f1             	mov    %rsi,%rcx
  4026d3:	4c 89 ef             	mov    %r13,%rdi
  4026d6:	f2 ae                	repnz scas %es:(%rdi),%al
  4026d8:	48 f7 d1             	not    %rcx
  4026db:	48 89 ca             	mov    %rcx,%rdx
  4026de:	48 89 f1             	mov    %rsi,%rcx
  4026e1:	4c 89 ff             	mov    %r15,%rdi
  4026e4:	f2 ae                	repnz scas %es:(%rdi),%al
  4026e6:	48 f7 d1             	not    %rcx
  4026e9:	49 89 c8             	mov    %rcx,%r8
  4026ec:	48 89 f1             	mov    %rsi,%rcx
  4026ef:	4c 89 f7             	mov    %r14,%rdi
  4026f2:	f2 ae                	repnz scas %es:(%rdi),%al
  4026f4:	48 f7 d1             	not    %rcx
  4026f7:	4d 8d 44 08 fe       	lea    -0x2(%r8,%rcx,1),%r8
  4026fc:	48 89 f1             	mov    %rsi,%rcx
  4026ff:	48 8b 7c 24 08       	mov    0x8(%rsp),%rdi
  402704:	f2 ae                	repnz scas %es:(%rdi),%al
  402706:	48 89 c8             	mov    %rcx,%rax
  402709:	48 f7 d0             	not    %rax
  40270c:	49 8d 4c 00 ff       	lea    -0x1(%r8,%rax,1),%rcx
  402711:	48 8d 44 52 fd       	lea    -0x3(%rdx,%rdx,2),%rax
  402716:	48 8d 84 01 80 00 00 	lea    0x80(%rcx,%rax,1),%rax
  40271d:	00 
  40271e:	48 3d 00 20 00 00    	cmp    $0x2000,%rax
  402724:	76 72                	jbe    402798 <submitr+0x2a8>
  402726:	48 b8 45 72 72 6f 72 	movabs $0x52203a726f727245,%rax
  40272d:	3a 20 52 
  402730:	48 89 03             	mov    %rax,(%rbx)
  402733:	48 b8 65 73 75 6c 74 	movabs $0x747320746c757365,%rax
  40273a:	20 73 74 
  40273d:	48 89 43 08          	mov    %rax,0x8(%rbx)
  402741:	48 b8 72 69 6e 67 20 	movabs $0x6f6f7420676e6972,%rax
  402748:	74 6f 6f 
  40274b:	48 89 43 10          	mov    %rax,0x10(%rbx)
  40274f:	48 b8 20 6c 61 72 67 	movabs $0x202e656772616c20,%rax
  402756:	65 2e 20 
  402759:	48 89 43 18          	mov    %rax,0x18(%rbx)
  40275d:	48 b8 49 6e 63 72 65 	movabs $0x6573616572636e49,%rax
  402764:	61 73 65 
  402767:	48 89 43 20          	mov    %rax,0x20(%rbx)
  40276b:	48 b8 20 53 55 42 4d 	movabs $0x5254494d42555320,%rax
  402772:	49 54 52 
  402775:	48 89 43 28          	mov    %rax,0x28(%rbx)
  402779:	48 b8 5f 4d 41 58 42 	movabs $0x46554258414d5f,%rax
  402780:	55 46 00 
  402783:	48 89 43 30          	mov    %rax,0x30(%rbx)
  402787:	89 ef                	mov    %ebp,%edi
  402789:	e8 a2 e5 ff ff       	callq  400d30 <close@plt>
  40278e:	b8 ff ff ff ff       	mov    $0xffffffff,%eax
  402793:	e9 9e 04 00 00       	jmpq   402c36 <submitr+0x746>
  402798:	48 8d b4 24 40 40 00 	lea    0x4040(%rsp),%rsi
  40279f:	00 
  4027a0:	b9 00 04 00 00       	mov    $0x400,%ecx
  4027a5:	b8 00 00 00 00       	mov    $0x0,%eax
  4027aa:	48 89 f7             	mov    %rsi,%rdi
  4027ad:	f3 48 ab             	rep stos %rax,%es:(%rdi)
  4027b0:	4c 89 ef             	mov    %r13,%rdi
  4027b3:	e8 2b fc ff ff       	callq  4023e3 <urlencode>
  4027b8:	85 c0                	test   %eax,%eax
  4027ba:	0f 89 8a 00 00 00    	jns    40284a <submitr+0x35a>
  4027c0:	48 b8 45 72 72 6f 72 	movabs $0x52203a726f727245,%rax
  4027c7:	3a 20 52 
  4027ca:	48 89 03             	mov    %rax,(%rbx)
  4027cd:	48 b8 65 73 75 6c 74 	movabs $0x747320746c757365,%rax
  4027d4:	20 73 74 
  4027d7:	48 89 43 08          	mov    %rax,0x8(%rbx)
  4027db:	48 b8 72 69 6e 67 20 	movabs $0x6e6f6320676e6972,%rax
  4027e2:	63 6f 6e 
  4027e5:	48 89 43 10          	mov    %rax,0x10(%rbx)
  4027e9:	48 b8 74 61 69 6e 73 	movabs $0x6e6120736e696174,%rax
  4027f0:	20 61 6e 
  4027f3:	48 89 43 18          	mov    %rax,0x18(%rbx)
  4027f7:	48 b8 20 69 6c 6c 65 	movabs $0x6c6167656c6c6920,%rax
  4027fe:	67 61 6c 
  402801:	48 89 43 20          	mov    %rax,0x20(%rbx)
  402805:	48 b8 20 6f 72 20 75 	movabs $0x72706e7520726f20,%rax
  40280c:	6e 70 72 
  40280f:	48 89 43 28          	mov    %rax,0x28(%rbx)
  402813:	48 b8 69 6e 74 61 62 	movabs $0x20656c6261746e69,%rax
  40281a:	6c 65 20 
  40281d:	48 89 43 30          	mov    %rax,0x30(%rbx)
  402821:	48 b8 63 68 61 72 61 	movabs $0x6574636172616863,%rax
  402828:	63 74 65 
  40282b:	48 89 43 38          	mov    %rax,0x38(%rbx)
  40282f:	66 c7 43 40 72 2e    	movw   $0x2e72,0x40(%rbx)
  402835:	c6 43 42 00          	movb   $0x0,0x42(%rbx)
  402839:	89 ef                	mov    %ebp,%edi
  40283b:	e8 f0 e4 ff ff       	callq  400d30 <close@plt>
  402840:	b8 ff ff ff ff       	mov    $0xffffffff,%eax
  402845:	e9 ec 03 00 00       	jmpq   402c36 <submitr+0x746>
  40284a:	4c 8d ac 24 40 20 00 	lea    0x2040(%rsp),%r13
  402851:	00 
  402852:	41 54                	push   %r12
  402854:	48 8d 84 24 48 40 00 	lea    0x4048(%rsp),%rax
  40285b:	00 
  40285c:	50                   	push   %rax
  40285d:	4d 89 f9             	mov    %r15,%r9
  402860:	4d 89 f0             	mov    %r14,%r8
  402863:	b9 b8 37 40 00       	mov    $0x4037b8,%ecx
  402868:	ba 00 20 00 00       	mov    $0x2000,%edx
  40286d:	be 01 00 00 00       	mov    $0x1,%esi
  402872:	4c 89 ef             	mov    %r13,%rdi
  402875:	b8 00 00 00 00       	mov    $0x0,%eax
  40287a:	e8 01 e6 ff ff       	callq  400e80 <__sprintf_chk@plt>
  40287f:	b8 00 00 00 00       	mov    $0x0,%eax
  402884:	48 c7 c1 ff ff ff ff 	mov    $0xffffffffffffffff,%rcx
  40288b:	4c 89 ef             	mov    %r13,%rdi
  40288e:	f2 ae                	repnz scas %es:(%rdi),%al
  402890:	48 f7 d1             	not    %rcx
  402893:	48 8d 51 ff          	lea    -0x1(%rcx),%rdx
  402897:	4c 89 ee             	mov    %r13,%rsi
  40289a:	89 ef                	mov    %ebp,%edi
  40289c:	e8 b1 f9 ff ff       	callq  402252 <rio_writen>
  4028a1:	48 83 c4 10          	add    $0x10,%rsp
  4028a5:	48 85 c0             	test   %rax,%rax
  4028a8:	79 6e                	jns    402918 <submitr+0x428>
  4028aa:	48 b8 45 72 72 6f 72 	movabs $0x43203a726f727245,%rax
  4028b1:	3a 20 43 
  4028b4:	48 89 03             	mov    %rax,(%rbx)
  4028b7:	48 b8 6c 69 65 6e 74 	movabs $0x6e7520746e65696c,%rax
  4028be:	20 75 6e 
  4028c1:	48 89 43 08          	mov    %rax,0x8(%rbx)
  4028c5:	48 b8 61 62 6c 65 20 	movabs $0x206f7420656c6261,%rax
  4028cc:	74 6f 20 
  4028cf:	48 89 43 10          	mov    %rax,0x10(%rbx)
  4028d3:	48 b8 77 72 69 74 65 	movabs $0x6f74206574697277,%rax
  4028da:	20 74 6f 
  4028dd:	48 89 43 18          	mov    %rax,0x18(%rbx)
  4028e1:	48 b8 20 74 68 65 20 	movabs $0x7365722065687420,%rax
  4028e8:	72 65 73 
  4028eb:	48 89 43 20          	mov    %rax,0x20(%rbx)
  4028ef:	48 b8 75 6c 74 20 73 	movabs $0x7672657320746c75,%rax
  4028f6:	65 72 76 
  4028f9:	48 89 43 28          	mov    %rax,0x28(%rbx)
  4028fd:	66 c7 43 30 65 72    	movw   $0x7265,0x30(%rbx)
  402903:	c6 43 32 00          	movb   $0x0,0x32(%rbx)
  402907:	89 ef                	mov    %ebp,%edi
  402909:	e8 22 e4 ff ff       	callq  400d30 <close@plt>
  40290e:	b8 ff ff ff ff       	mov    $0xffffffff,%eax
  402913:	e9 1e 03 00 00       	jmpq   402c36 <submitr+0x746>
  402918:	89 ee                	mov    %ebp,%esi
  40291a:	48 8d 7c 24 30       	lea    0x30(%rsp),%rdi
  40291f:	e8 ee f8 ff ff       	callq  402212 <rio_readinitb>
  402924:	ba 00 20 00 00       	mov    $0x2000,%edx
  402929:	48 8d b4 24 40 20 00 	lea    0x2040(%rsp),%rsi
  402930:	00 
  402931:	48 8d 7c 24 30       	lea    0x30(%rsp),%rdi
  402936:	e8 fe f9 ff ff       	callq  402339 <rio_readlineb>
  40293b:	48 85 c0             	test   %rax,%rax
  40293e:	7f 7d                	jg     4029bd <submitr+0x4cd>
  402940:	48 b8 45 72 72 6f 72 	movabs $0x43203a726f727245,%rax
  402947:	3a 20 43 
  40294a:	48 89 03             	mov    %rax,(%rbx)
  40294d:	48 b8 6c 69 65 6e 74 	movabs $0x6e7520746e65696c,%rax
  402954:	20 75 6e 
  402957:	48 89 43 08          	mov    %rax,0x8(%rbx)
  40295b:	48 b8 61 62 6c 65 20 	movabs $0x206f7420656c6261,%rax
  402962:	74 6f 20 
  402965:	48 89 43 10          	mov    %rax,0x10(%rbx)
  402969:	48 b8 72 65 61 64 20 	movabs $0x7269662064616572,%rax
  402970:	66 69 72 
  402973:	48 89 43 18          	mov    %rax,0x18(%rbx)
  402977:	48 b8 73 74 20 68 65 	movabs $0x6564616568207473,%rax
  40297e:	61 64 65 
  402981:	48 89 43 20          	mov    %rax,0x20(%rbx)
  402985:	48 b8 72 20 66 72 6f 	movabs $0x72206d6f72662072,%rax
  40298c:	6d 20 72 
  40298f:	48 89 43 28          	mov    %rax,0x28(%rbx)
  402993:	48 b8 65 73 75 6c 74 	movabs $0x657320746c757365,%rax
  40299a:	20 73 65 
  40299d:	48 89 43 30          	mov    %rax,0x30(%rbx)
  4029a1:	c7 43 38 72 76 65 72 	movl   $0x72657672,0x38(%rbx)
  4029a8:	c6 43 3c 00          	movb   $0x0,0x3c(%rbx)
  4029ac:	89 ef                	mov    %ebp,%edi
  4029ae:	e8 7d e3 ff ff       	callq  400d30 <close@plt>
  4029b3:	b8 ff ff ff ff       	mov    $0xffffffff,%eax
  4029b8:	e9 79 02 00 00       	jmpq   402c36 <submitr+0x746>
  4029bd:	4c 8d 84 24 40 80 00 	lea    0x8040(%rsp),%r8
  4029c4:	00 
  4029c5:	48 8d 4c 24 1c       	lea    0x1c(%rsp),%rcx
  4029ca:	48 8d 94 24 40 60 00 	lea    0x6040(%rsp),%rdx
  4029d1:	00 
  4029d2:	be 2f 38 40 00       	mov    $0x40382f,%esi
  4029d7:	48 8d bc 24 40 20 00 	lea    0x2040(%rsp),%rdi
  4029de:	00 
  4029df:	b8 00 00 00 00       	mov    $0x0,%eax
  4029e4:	e8 f7 e3 ff ff       	callq  400de0 <__isoc99_sscanf@plt>
  4029e9:	e9 95 00 00 00       	jmpq   402a83 <submitr+0x593>
  4029ee:	ba 00 20 00 00       	mov    $0x2000,%edx
  4029f3:	48 8d b4 24 40 20 00 	lea    0x2040(%rsp),%rsi
  4029fa:	00 
  4029fb:	48 8d 7c 24 30       	lea    0x30(%rsp),%rdi
  402a00:	e8 34 f9 ff ff       	callq  402339 <rio_readlineb>
  402a05:	48 85 c0             	test   %rax,%rax
  402a08:	7f 79                	jg     402a83 <submitr+0x593>
  402a0a:	48 b8 45 72 72 6f 72 	movabs $0x43203a726f727245,%rax
  402a11:	3a 20 43 
  402a14:	48 89 03             	mov    %rax,(%rbx)
  402a17:	48 b8 6c 69 65 6e 74 	movabs $0x6e7520746e65696c,%rax
  402a1e:	20 75 6e 
  402a21:	48 89 43 08          	mov    %rax,0x8(%rbx)
  402a25:	48 b8 61 62 6c 65 20 	movabs $0x206f7420656c6261,%rax
  402a2c:	74 6f 20 
  402a2f:	48 89 43 10          	mov    %rax,0x10(%rbx)
  402a33:	48 b8 72 65 61 64 20 	movabs $0x6165682064616572,%rax
  402a3a:	68 65 61 
  402a3d:	48 89 43 18          	mov    %rax,0x18(%rbx)
  402a41:	48 b8 64 65 72 73 20 	movabs $0x6f72662073726564,%rax
  402a48:	66 72 6f 
  402a4b:	48 89 43 20          	mov    %rax,0x20(%rbx)
  402a4f:	48 b8 6d 20 74 68 65 	movabs $0x657220656874206d,%rax
  402a56:	20 72 65 
  402a59:	48 89 43 28          	mov    %rax,0x28(%rbx)
  402a5d:	48 b8 73 75 6c 74 20 	movabs $0x72657320746c7573,%rax
  402a64:	73 65 72 
  402a67:	48 89 43 30          	mov    %rax,0x30(%rbx)
  402a6b:	c7 43 38 76 65 72 00 	movl   $0x726576,0x38(%rbx)
  402a72:	89 ef                	mov    %ebp,%edi
  402a74:	e8 b7 e2 ff ff       	callq  400d30 <close@plt>
  402a79:	b8 ff ff ff ff       	mov    $0xffffffff,%eax
  402a7e:	e9 b3 01 00 00       	jmpq   402c36 <submitr+0x746>
  402a83:	0f b6 94 24 40 20 00 	movzbl 0x2040(%rsp),%edx
  402a8a:	00 
  402a8b:	b8 0d 00 00 00       	mov    $0xd,%eax
  402a90:	29 d0                	sub    %edx,%eax
  402a92:	75 1b                	jne    402aaf <submitr+0x5bf>
  402a94:	0f b6 94 24 41 20 00 	movzbl 0x2041(%rsp),%edx
  402a9b:	00 
  402a9c:	b8 0a 00 00 00       	mov    $0xa,%eax
  402aa1:	29 d0                	sub    %edx,%eax
  402aa3:	75 0a                	jne    402aaf <submitr+0x5bf>
  402aa5:	0f b6 84 24 42 20 00 	movzbl 0x2042(%rsp),%eax
  402aac:	00 
  402aad:	f7 d8                	neg    %eax
  402aaf:	85 c0                	test   %eax,%eax
  402ab1:	0f 85 37 ff ff ff    	jne    4029ee <submitr+0x4fe>
  402ab7:	ba 00 20 00 00       	mov    $0x2000,%edx
  402abc:	48 8d b4 24 40 20 00 	lea    0x2040(%rsp),%rsi
  402ac3:	00 
  402ac4:	48 8d 7c 24 30       	lea    0x30(%rsp),%rdi
  402ac9:	e8 6b f8 ff ff       	callq  402339 <rio_readlineb>
  402ace:	48 85 c0             	test   %rax,%rax
  402ad1:	0f 8f 83 00 00 00    	jg     402b5a <submitr+0x66a>
  402ad7:	48 b8 45 72 72 6f 72 	movabs $0x43203a726f727245,%rax
  402ade:	3a 20 43 
  402ae1:	48 89 03             	mov    %rax,(%rbx)
  402ae4:	48 b8 6c 69 65 6e 74 	movabs $0x6e7520746e65696c,%rax
  402aeb:	20 75 6e 
  402aee:	48 89 43 08          	mov    %rax,0x8(%rbx)
  402af2:	48 b8 61 62 6c 65 20 	movabs $0x206f7420656c6261,%rax
  402af9:	74 6f 20 
  402afc:	48 89 43 10          	mov    %rax,0x10(%rbx)
  402b00:	48 b8 72 65 61 64 20 	movabs $0x6174732064616572,%rax
  402b07:	73 74 61 
  402b0a:	48 89 43 18          	mov    %rax,0x18(%rbx)
  402b0e:	48 b8 74 75 73 20 6d 	movabs $0x7373656d20737574,%rax
  402b15:	65 73 73 
  402b18:	48 89 43 20          	mov    %rax,0x20(%rbx)
  402b1c:	48 b8 61 67 65 20 66 	movabs $0x6d6f726620656761,%rax
  402b23:	72 6f 6d 
  402b26:	48 89 43 28          	mov    %rax,0x28(%rbx)
  402b2a:	48 b8 20 72 65 73 75 	movabs $0x20746c7573657220,%rax
  402b31:	6c 74 20 
  402b34:	48 89 43 30          	mov    %rax,0x30(%rbx)
  402b38:	c7 43 38 73 65 72 76 	movl   $0x76726573,0x38(%rbx)
  402b3f:	66 c7 43 3c 65 72    	movw   $0x7265,0x3c(%rbx)
  402b45:	c6 43 3e 00          	movb   $0x0,0x3e(%rbx)
  402b49:	89 ef                	mov    %ebp,%edi
  402b4b:	e8 e0 e1 ff ff       	callq  400d30 <close@plt>
  402b50:	b8 ff ff ff ff       	mov    $0xffffffff,%eax
  402b55:	e9 dc 00 00 00       	jmpq   402c36 <submitr+0x746>
  402b5a:	44 8b 44 24 1c       	mov    0x1c(%rsp),%r8d
  402b5f:	41 81 f8 c8 00 00 00 	cmp    $0xc8,%r8d
  402b66:	74 37                	je     402b9f <submitr+0x6af>
  402b68:	4c 8d 8c 24 40 80 00 	lea    0x8040(%rsp),%r9
  402b6f:	00 
  402b70:	b9 f8 37 40 00       	mov    $0x4037f8,%ecx
  402b75:	48 c7 c2 ff ff ff ff 	mov    $0xffffffffffffffff,%rdx
  402b7c:	be 01 00 00 00       	mov    $0x1,%esi
  402b81:	48 89 df             	mov    %rbx,%rdi
  402b84:	b8 00 00 00 00       	mov    $0x0,%eax
  402b89:	e8 f2 e2 ff ff       	callq  400e80 <__sprintf_chk@plt>
  402b8e:	89 ef                	mov    %ebp,%edi
  402b90:	e8 9b e1 ff ff       	callq  400d30 <close@plt>
  402b95:	b8 ff ff ff ff       	mov    $0xffffffff,%eax
  402b9a:	e9 97 00 00 00       	jmpq   402c36 <submitr+0x746>
  402b9f:	48 8d b4 24 40 20 00 	lea    0x2040(%rsp),%rsi
  402ba6:	00 
  402ba7:	48 89 df             	mov    %rbx,%rdi
  402baa:	e8 11 e1 ff ff       	callq  400cc0 <strcpy@plt>
  402baf:	89 ef                	mov    %ebp,%edi
  402bb1:	e8 7a e1 ff ff       	callq  400d30 <close@plt>
  402bb6:	0f b6 03             	movzbl (%rbx),%eax
  402bb9:	ba 4f 00 00 00       	mov    $0x4f,%edx
  402bbe:	29 c2                	sub    %eax,%edx
  402bc0:	75 22                	jne    402be4 <submitr+0x6f4>
  402bc2:	0f b6 4b 01          	movzbl 0x1(%rbx),%ecx
  402bc6:	b8 4b 00 00 00       	mov    $0x4b,%eax
  402bcb:	29 c8                	sub    %ecx,%eax
  402bcd:	75 17                	jne    402be6 <submitr+0x6f6>
  402bcf:	0f b6 4b 02          	movzbl 0x2(%rbx),%ecx
  402bd3:	b8 0a 00 00 00       	mov    $0xa,%eax
  402bd8:	29 c8                	sub    %ecx,%eax
  402bda:	75 0a                	jne    402be6 <submitr+0x6f6>
  402bdc:	0f b6 43 03          	movzbl 0x3(%rbx),%eax
  402be0:	f7 d8                	neg    %eax
  402be2:	eb 02                	jmp    402be6 <submitr+0x6f6>
  402be4:	89 d0                	mov    %edx,%eax
  402be6:	85 c0                	test   %eax,%eax
  402be8:	74 40                	je     402c2a <submitr+0x73a>
  402bea:	bf 40 38 40 00       	mov    $0x403840,%edi
  402bef:	b9 05 00 00 00       	mov    $0x5,%ecx
  402bf4:	48 89 de             	mov    %rbx,%rsi
  402bf7:	f3 a6                	repz cmpsb %es:(%rdi),%ds:(%rsi)
  402bf9:	0f 97 c0             	seta   %al
  402bfc:	0f 92 c1             	setb   %cl
  402bff:	29 c8                	sub    %ecx,%eax
  402c01:	0f be c0             	movsbl %al,%eax
  402c04:	85 c0                	test   %eax,%eax
  402c06:	74 2e                	je     402c36 <submitr+0x746>
  402c08:	85 d2                	test   %edx,%edx
  402c0a:	75 13                	jne    402c1f <submitr+0x72f>
  402c0c:	0f b6 43 01          	movzbl 0x1(%rbx),%eax
  402c10:	ba 4b 00 00 00       	mov    $0x4b,%edx
  402c15:	29 c2                	sub    %eax,%edx
  402c17:	75 06                	jne    402c1f <submitr+0x72f>
  402c19:	0f b6 53 02          	movzbl 0x2(%rbx),%edx
  402c1d:	f7 da                	neg    %edx
  402c1f:	85 d2                	test   %edx,%edx
  402c21:	75 0e                	jne    402c31 <submitr+0x741>
  402c23:	b8 00 00 00 00       	mov    $0x0,%eax
  402c28:	eb 0c                	jmp    402c36 <submitr+0x746>
  402c2a:	b8 00 00 00 00       	mov    $0x0,%eax
  402c2f:	eb 05                	jmp    402c36 <submitr+0x746>
  402c31:	b8 ff ff ff ff       	mov    $0xffffffff,%eax
  402c36:	48 8b 9c 24 48 a0 00 	mov    0xa048(%rsp),%rbx
  402c3d:	00 
  402c3e:	64 48 33 1c 25 28 00 	xor    %fs:0x28,%rbx
  402c45:	00 00 
  402c47:	74 05                	je     402c4e <submitr+0x75e>
  402c49:	e8 a2 e0 ff ff       	callq  400cf0 <__stack_chk_fail@plt>
  402c4e:	48 81 c4 58 a0 00 00 	add    $0xa058,%rsp
  402c55:	5b                   	pop    %rbx
  402c56:	5d                   	pop    %rbp
  402c57:	41 5c                	pop    %r12
  402c59:	41 5d                	pop    %r13
  402c5b:	41 5e                	pop    %r14
  402c5d:	41 5f                	pop    %r15
  402c5f:	c3                   	retq   

0000000000402c60 <init_timeout>:
  402c60:	85 ff                	test   %edi,%edi
  402c62:	74 23                	je     402c87 <init_timeout+0x27>
  402c64:	53                   	push   %rbx
  402c65:	89 fb                	mov    %edi,%ebx
  402c67:	85 ff                	test   %edi,%edi
  402c69:	79 05                	jns    402c70 <init_timeout+0x10>
  402c6b:	bb 00 00 00 00       	mov    $0x0,%ebx
  402c70:	be 24 22 40 00       	mov    $0x402224,%esi
  402c75:	bf 0e 00 00 00       	mov    $0xe,%edi
  402c7a:	e8 e1 e0 ff ff       	callq  400d60 <signal@plt>
  402c7f:	89 df                	mov    %ebx,%edi
  402c81:	e8 9a e0 ff ff       	callq  400d20 <alarm@plt>
  402c86:	5b                   	pop    %rbx
  402c87:	f3 c3                	repz retq 

0000000000402c89 <init_driver>:
  402c89:	55                   	push   %rbp
  402c8a:	53                   	push   %rbx
  402c8b:	48 83 ec 28          	sub    $0x28,%rsp
  402c8f:	48 89 fd             	mov    %rdi,%rbp
  402c92:	64 48 8b 04 25 28 00 	mov    %fs:0x28,%rax
  402c99:	00 00 
  402c9b:	48 89 44 24 18       	mov    %rax,0x18(%rsp)
  402ca0:	31 c0                	xor    %eax,%eax
  402ca2:	be 01 00 00 00       	mov    $0x1,%esi
  402ca7:	bf 0d 00 00 00       	mov    $0xd,%edi
  402cac:	e8 af e0 ff ff       	callq  400d60 <signal@plt>
  402cb1:	be 01 00 00 00       	mov    $0x1,%esi
  402cb6:	bf 1d 00 00 00       	mov    $0x1d,%edi
  402cbb:	e8 a0 e0 ff ff       	callq  400d60 <signal@plt>
  402cc0:	be 01 00 00 00       	mov    $0x1,%esi
  402cc5:	bf 1d 00 00 00       	mov    $0x1d,%edi
  402cca:	e8 91 e0 ff ff       	callq  400d60 <signal@plt>
  402ccf:	ba 00 00 00 00       	mov    $0x0,%edx
  402cd4:	be 01 00 00 00       	mov    $0x1,%esi
  402cd9:	bf 02 00 00 00       	mov    $0x2,%edi
  402cde:	e8 ad e1 ff ff       	callq  400e90 <socket@plt>
  402ce3:	85 c0                	test   %eax,%eax
  402ce5:	79 4f                	jns    402d36 <init_driver+0xad>
  402ce7:	48 b8 45 72 72 6f 72 	movabs $0x43203a726f727245,%rax
  402cee:	3a 20 43 
  402cf1:	48 89 45 00          	mov    %rax,0x0(%rbp)
  402cf5:	48 b8 6c 69 65 6e 74 	movabs $0x6e7520746e65696c,%rax
  402cfc:	20 75 6e 
  402cff:	48 89 45 08          	mov    %rax,0x8(%rbp)
  402d03:	48 b8 61 62 6c 65 20 	movabs $0x206f7420656c6261,%rax
  402d0a:	74 6f 20 
  402d0d:	48 89 45 10          	mov    %rax,0x10(%rbp)
  402d11:	48 b8 63 72 65 61 74 	movabs $0x7320657461657263,%rax
  402d18:	65 20 73 
  402d1b:	48 89 45 18          	mov    %rax,0x18(%rbp)
  402d1f:	c7 45 20 6f 63 6b 65 	movl   $0x656b636f,0x20(%rbp)
  402d26:	66 c7 45 24 74 00    	movw   $0x74,0x24(%rbp)
  402d2c:	b8 ff ff ff ff       	mov    $0xffffffff,%eax
  402d31:	e9 2a 01 00 00       	jmpq   402e60 <init_driver+0x1d7>
  402d36:	89 c3                	mov    %eax,%ebx
  402d38:	bf 59 33 40 00       	mov    $0x403359,%edi
  402d3d:	e8 2e e0 ff ff       	callq  400d70 <gethostbyname@plt>
  402d42:	48 85 c0             	test   %rax,%rax
  402d45:	75 68                	jne    402daf <init_driver+0x126>
  402d47:	48 b8 45 72 72 6f 72 	movabs $0x44203a726f727245,%rax
  402d4e:	3a 20 44 
  402d51:	48 89 45 00          	mov    %rax,0x0(%rbp)
  402d55:	48 b8 4e 53 20 69 73 	movabs $0x6e7520736920534e,%rax
  402d5c:	20 75 6e 
  402d5f:	48 89 45 08          	mov    %rax,0x8(%rbp)
  402d63:	48 b8 61 62 6c 65 20 	movabs $0x206f7420656c6261,%rax
  402d6a:	74 6f 20 
  402d6d:	48 89 45 10          	mov    %rax,0x10(%rbp)
  402d71:	48 b8 72 65 73 6f 6c 	movabs $0x2065766c6f736572,%rax
  402d78:	76 65 20 
  402d7b:	48 89 45 18          	mov    %rax,0x18(%rbp)
  402d7f:	48 b8 73 65 72 76 65 	movabs $0x6120726576726573,%rax
  402d86:	72 20 61 
  402d89:	48 89 45 20          	mov    %rax,0x20(%rbp)
  402d8d:	c7 45 28 64 64 72 65 	movl   $0x65726464,0x28(%rbp)
  402d94:	66 c7 45 2c 73 73    	movw   $0x7373,0x2c(%rbp)
  402d9a:	c6 45 2e 00          	movb   $0x0,0x2e(%rbp)
  402d9e:	89 df                	mov    %ebx,%edi
  402da0:	e8 8b df ff ff       	callq  400d30 <close@plt>
  402da5:	b8 ff ff ff ff       	mov    $0xffffffff,%eax
  402daa:	e9 b1 00 00 00       	jmpq   402e60 <init_driver+0x1d7>
  402daf:	48 c7 04 24 00 00 00 	movq   $0x0,(%rsp)
  402db6:	00 
  402db7:	48 c7 44 24 08 00 00 	movq   $0x0,0x8(%rsp)
  402dbe:	00 00 
  402dc0:	66 c7 04 24 02 00    	movw   $0x2,(%rsp)
  402dc6:	48 63 50 14          	movslq 0x14(%rax),%rdx
  402dca:	48 8b 40 18          	mov    0x18(%rax),%rax
  402dce:	48 8b 30             	mov    (%rax),%rsi
  402dd1:	48 8d 7c 24 04       	lea    0x4(%rsp),%rdi
  402dd6:	b9 0c 00 00 00       	mov    $0xc,%ecx
  402ddb:	e8 a0 df ff ff       	callq  400d80 <__memmove_chk@plt>
  402de0:	66 c7 44 24 02 3c 9a 	movw   $0x9a3c,0x2(%rsp)
  402de7:	ba 10 00 00 00       	mov    $0x10,%edx
  402dec:	48 89 e6             	mov    %rsp,%rsi
  402def:	89 df                	mov    %ebx,%edi
  402df1:	e8 6a e0 ff ff       	callq  400e60 <connect@plt>
  402df6:	85 c0                	test   %eax,%eax
  402df8:	79 50                	jns    402e4a <init_driver+0x1c1>
  402dfa:	48 b8 45 72 72 6f 72 	movabs $0x55203a726f727245,%rax
  402e01:	3a 20 55 
  402e04:	48 89 45 00          	mov    %rax,0x0(%rbp)
  402e08:	48 b8 6e 61 62 6c 65 	movabs $0x6f7420656c62616e,%rax
  402e0f:	20 74 6f 
  402e12:	48 89 45 08          	mov    %rax,0x8(%rbp)
  402e16:	48 b8 20 63 6f 6e 6e 	movabs $0x7463656e6e6f6320,%rax
  402e1d:	65 63 74 
  402e20:	48 89 45 10          	mov    %rax,0x10(%rbp)
  402e24:	48 b8 20 74 6f 20 73 	movabs $0x76726573206f7420,%rax
  402e2b:	65 72 76 
  402e2e:	48 89 45 18          	mov    %rax,0x18(%rbp)
  402e32:	66 c7 45 20 65 72    	movw   $0x7265,0x20(%rbp)
  402e38:	c6 45 22 00          	movb   $0x0,0x22(%rbp)
  402e3c:	89 df                	mov    %ebx,%edi
  402e3e:	e8 ed de ff ff       	callq  400d30 <close@plt>
  402e43:	b8 ff ff ff ff       	mov    $0xffffffff,%eax
  402e48:	eb 16                	jmp    402e60 <init_driver+0x1d7>
  402e4a:	89 df                	mov    %ebx,%edi
  402e4c:	e8 df de ff ff       	callq  400d30 <close@plt>
  402e51:	66 c7 45 00 4f 4b    	movw   $0x4b4f,0x0(%rbp)
  402e57:	c6 45 02 00          	movb   $0x0,0x2(%rbp)
  402e5b:	b8 00 00 00 00       	mov    $0x0,%eax
  402e60:	48 8b 4c 24 18       	mov    0x18(%rsp),%rcx
  402e65:	64 48 33 0c 25 28 00 	xor    %fs:0x28,%rcx
  402e6c:	00 00 
  402e6e:	74 05                	je     402e75 <init_driver+0x1ec>
  402e70:	e8 7b de ff ff       	callq  400cf0 <__stack_chk_fail@plt>
  402e75:	48 83 c4 28          	add    $0x28,%rsp
  402e79:	5b                   	pop    %rbx
  402e7a:	5d                   	pop    %rbp
  402e7b:	c3                   	retq   

0000000000402e7c <driver_post>:
  402e7c:	53                   	push   %rbx
  402e7d:	4c 89 cb             	mov    %r9,%rbx
  402e80:	45 85 c0             	test   %r8d,%r8d
  402e83:	74 27                	je     402eac <driver_post+0x30>
  402e85:	48 89 ca             	mov    %rcx,%rdx
  402e88:	be 45 38 40 00       	mov    $0x403845,%esi
  402e8d:	bf 01 00 00 00       	mov    $0x1,%edi
  402e92:	b8 00 00 00 00       	mov    $0x0,%eax
  402e97:	e8 64 df ff ff       	callq  400e00 <__printf_chk@plt>
  402e9c:	66 c7 03 4f 4b       	movw   $0x4b4f,(%rbx)
  402ea1:	c6 43 02 00          	movb   $0x0,0x2(%rbx)
  402ea5:	b8 00 00 00 00       	mov    $0x0,%eax
  402eaa:	eb 3f                	jmp    402eeb <driver_post+0x6f>
  402eac:	48 85 ff             	test   %rdi,%rdi
  402eaf:	74 2c                	je     402edd <driver_post+0x61>
  402eb1:	80 3f 00             	cmpb   $0x0,(%rdi)
  402eb4:	74 27                	je     402edd <driver_post+0x61>
  402eb6:	48 83 ec 08          	sub    $0x8,%rsp
  402eba:	41 51                	push   %r9
  402ebc:	49 89 c9             	mov    %rcx,%r9
  402ebf:	49 89 d0             	mov    %rdx,%r8
  402ec2:	48 89 f9             	mov    %rdi,%rcx
  402ec5:	48 89 f2             	mov    %rsi,%rdx
  402ec8:	be 9a 3c 00 00       	mov    $0x3c9a,%esi
  402ecd:	bf 59 33 40 00       	mov    $0x403359,%edi
  402ed2:	e8 19 f6 ff ff       	callq  4024f0 <submitr>
  402ed7:	48 83 c4 10          	add    $0x10,%rsp
  402edb:	eb 0e                	jmp    402eeb <driver_post+0x6f>
  402edd:	66 c7 03 4f 4b       	movw   $0x4b4f,(%rbx)
  402ee2:	c6 43 02 00          	movb   $0x0,0x2(%rbx)
  402ee6:	b8 00 00 00 00       	mov    $0x0,%eax
  402eeb:	5b                   	pop    %rbx
  402eec:	c3                   	retq   

0000000000402eed <check>:
  402eed:	89 f8                	mov    %edi,%eax
  402eef:	c1 e8 1c             	shr    $0x1c,%eax
  402ef2:	85 c0                	test   %eax,%eax
  402ef4:	74 1d                	je     402f13 <check+0x26>
  402ef6:	b9 00 00 00 00       	mov    $0x0,%ecx
  402efb:	eb 0b                	jmp    402f08 <check+0x1b>
  402efd:	89 f8                	mov    %edi,%eax
  402eff:	d3 e8                	shr    %cl,%eax
  402f01:	3c 0a                	cmp    $0xa,%al
  402f03:	74 14                	je     402f19 <check+0x2c>
  402f05:	83 c1 08             	add    $0x8,%ecx
  402f08:	83 f9 1f             	cmp    $0x1f,%ecx
  402f0b:	7e f0                	jle    402efd <check+0x10>
  402f0d:	b8 01 00 00 00       	mov    $0x1,%eax
  402f12:	c3                   	retq   
  402f13:	b8 00 00 00 00       	mov    $0x0,%eax
  402f18:	c3                   	retq   
  402f19:	b8 00 00 00 00       	mov    $0x0,%eax
  402f1e:	c3                   	retq   

0000000000402f1f <gencookie>:
  402f1f:	53                   	push   %rbx
  402f20:	83 c7 01             	add    $0x1,%edi
  402f23:	e8 78 dd ff ff       	callq  400ca0 <srandom@plt>
  402f28:	e8 93 de ff ff       	callq  400dc0 <random@plt>
  402f2d:	89 c3                	mov    %eax,%ebx
  402f2f:	89 c7                	mov    %eax,%edi
  402f31:	e8 b7 ff ff ff       	callq  402eed <check>
  402f36:	85 c0                	test   %eax,%eax
  402f38:	74 ee                	je     402f28 <gencookie+0x9>
  402f3a:	89 d8                	mov    %ebx,%eax
  402f3c:	5b                   	pop    %rbx
  402f3d:	c3                   	retq   
  402f3e:	66 90                	xchg   %ax,%ax

0000000000402f40 <__libc_csu_init>:
  402f40:	41 57                	push   %r15
  402f42:	41 56                	push   %r14
  402f44:	41 89 ff             	mov    %edi,%r15d
  402f47:	41 55                	push   %r13
  402f49:	41 54                	push   %r12
  402f4b:	4c 8d 25 be 1e 20 00 	lea    0x201ebe(%rip),%r12        # 604e10 <__frame_dummy_init_array_entry>
  402f52:	55                   	push   %rbp
  402f53:	48 8d 2d be 1e 20 00 	lea    0x201ebe(%rip),%rbp        # 604e18 <__init_array_end>
  402f5a:	53                   	push   %rbx
  402f5b:	49 89 f6             	mov    %rsi,%r14
  402f5e:	49 89 d5             	mov    %rdx,%r13
  402f61:	4c 29 e5             	sub    %r12,%rbp
  402f64:	48 83 ec 08          	sub    $0x8,%rsp
  402f68:	48 c1 fd 03          	sar    $0x3,%rbp
  402f6c:	e8 d7 dc ff ff       	callq  400c48 <_init>
  402f71:	48 85 ed             	test   %rbp,%rbp
  402f74:	74 20                	je     402f96 <__libc_csu_init+0x56>
  402f76:	31 db                	xor    %ebx,%ebx
  402f78:	0f 1f 84 00 00 00 00 	nopl   0x0(%rax,%rax,1)
  402f7f:	00 
  402f80:	4c 89 ea             	mov    %r13,%rdx
  402f83:	4c 89 f6             	mov    %r14,%rsi
  402f86:	44 89 ff             	mov    %r15d,%edi
  402f89:	41 ff 14 dc          	callq  *(%r12,%rbx,8)
  402f8d:	48 83 c3 01          	add    $0x1,%rbx
  402f91:	48 39 eb             	cmp    %rbp,%rbx
  402f94:	75 ea                	jne    402f80 <__libc_csu_init+0x40>
  402f96:	48 83 c4 08          	add    $0x8,%rsp
  402f9a:	5b                   	pop    %rbx
  402f9b:	5d                   	pop    %rbp
  402f9c:	41 5c                	pop    %r12
  402f9e:	41 5d                	pop    %r13
  402fa0:	41 5e                	pop    %r14
  402fa2:	41 5f                	pop    %r15
  402fa4:	c3                   	retq   
  402fa5:	90                   	nop
  402fa6:	66 2e 0f 1f 84 00 00 	nopw   %cs:0x0(%rax,%rax,1)
  402fad:	00 00 00 

0000000000402fb0 <__libc_csu_fini>:
  402fb0:	f3 c3                	repz retq 

Disassembly of section .fini:

0000000000402fb4 <_fini>:
  402fb4:	48 83 ec 08          	sub    $0x8,%rsp
  402fb8:	48 83 c4 08          	add    $0x8,%rsp
  402fbc:	c3                   	retq   
