
ctarget:     file format elf64-x86-64


Disassembly of section .init:

0000000000400c48 <_init>:
  400c48:	48 83 ec 08          	sub    $0x8,%rsp
  400c4c:	48 8b 05 a5 43 20 00 	mov    0x2043a5(%rip),%rax        # 604ff8 <_DYNAMIC+0x1d0>
  400c53:	48 85 c0             	test   %rax,%rax
  400c56:	74 05                	je     400c5d <_init+0x15>
  400c58:	e8 43 02 00 00       	callq  400ea0 <socket@plt+0x10>
  400c5d:	48 83 c4 08          	add    $0x8,%rsp
  400c61:	c3                   	retq   

Disassembly of section .plt:

0000000000400c70 <strcasecmp@plt-0x10>:
  400c70:	ff 35 92 43 20 00    	pushq  0x204392(%rip)        # 605008 <_GLOBAL_OFFSET_TABLE_+0x8>
  400c76:	ff 25 94 43 20 00    	jmpq   *0x204394(%rip)        # 605010 <_GLOBAL_OFFSET_TABLE_+0x10>
  400c7c:	0f 1f 40 00          	nopl   0x0(%rax)

0000000000400c80 <strcasecmp@plt>:
  400c80:	ff 25 92 43 20 00    	jmpq   *0x204392(%rip)        # 605018 <_GLOBAL_OFFSET_TABLE_+0x18>
  400c86:	68 00 00 00 00       	pushq  $0x0
  400c8b:	e9 e0 ff ff ff       	jmpq   400c70 <_init+0x28>

0000000000400c90 <__errno_location@plt>:
  400c90:	ff 25 8a 43 20 00    	jmpq   *0x20438a(%rip)        # 605020 <_GLOBAL_OFFSET_TABLE_+0x20>
  400c96:	68 01 00 00 00       	pushq  $0x1
  400c9b:	e9 d0 ff ff ff       	jmpq   400c70 <_init+0x28>

0000000000400ca0 <srandom@plt>:
  400ca0:	ff 25 82 43 20 00    	jmpq   *0x204382(%rip)        # 605028 <_GLOBAL_OFFSET_TABLE_+0x28>
  400ca6:	68 02 00 00 00       	pushq  $0x2
  400cab:	e9 c0 ff ff ff       	jmpq   400c70 <_init+0x28>

0000000000400cb0 <strncmp@plt>:
  400cb0:	ff 25 7a 43 20 00    	jmpq   *0x20437a(%rip)        # 605030 <_GLOBAL_OFFSET_TABLE_+0x30>
  400cb6:	68 03 00 00 00       	pushq  $0x3
  400cbb:	e9 b0 ff ff ff       	jmpq   400c70 <_init+0x28>

0000000000400cc0 <strcpy@plt>:
  400cc0:	ff 25 72 43 20 00    	jmpq   *0x204372(%rip)        # 605038 <_GLOBAL_OFFSET_TABLE_+0x38>
  400cc6:	68 04 00 00 00       	pushq  $0x4
  400ccb:	e9 a0 ff ff ff       	jmpq   400c70 <_init+0x28>

0000000000400cd0 <puts@plt>:
  400cd0:	ff 25 6a 43 20 00    	jmpq   *0x20436a(%rip)        # 605040 <_GLOBAL_OFFSET_TABLE_+0x40>
  400cd6:	68 05 00 00 00       	pushq  $0x5
  400cdb:	e9 90 ff ff ff       	jmpq   400c70 <_init+0x28>

0000000000400ce0 <write@plt>:
  400ce0:	ff 25 62 43 20 00    	jmpq   *0x204362(%rip)        # 605048 <_GLOBAL_OFFSET_TABLE_+0x48>
  400ce6:	68 06 00 00 00       	pushq  $0x6
  400ceb:	e9 80 ff ff ff       	jmpq   400c70 <_init+0x28>

0000000000400cf0 <__stack_chk_fail@plt>:
  400cf0:	ff 25 5a 43 20 00    	jmpq   *0x20435a(%rip)        # 605050 <_GLOBAL_OFFSET_TABLE_+0x50>
  400cf6:	68 07 00 00 00       	pushq  $0x7
  400cfb:	e9 70 ff ff ff       	jmpq   400c70 <_init+0x28>

0000000000400d00 <mmap@plt>:
  400d00:	ff 25 52 43 20 00    	jmpq   *0x204352(%rip)        # 605058 <_GLOBAL_OFFSET_TABLE_+0x58>
  400d06:	68 08 00 00 00       	pushq  $0x8
  400d0b:	e9 60 ff ff ff       	jmpq   400c70 <_init+0x28>

0000000000400d10 <memset@plt>:
  400d10:	ff 25 4a 43 20 00    	jmpq   *0x20434a(%rip)        # 605060 <_GLOBAL_OFFSET_TABLE_+0x60>
  400d16:	68 09 00 00 00       	pushq  $0x9
  400d1b:	e9 50 ff ff ff       	jmpq   400c70 <_init+0x28>

0000000000400d20 <alarm@plt>:
  400d20:	ff 25 42 43 20 00    	jmpq   *0x204342(%rip)        # 605068 <_GLOBAL_OFFSET_TABLE_+0x68>
  400d26:	68 0a 00 00 00       	pushq  $0xa
  400d2b:	e9 40 ff ff ff       	jmpq   400c70 <_init+0x28>

0000000000400d30 <close@plt>:
  400d30:	ff 25 3a 43 20 00    	jmpq   *0x20433a(%rip)        # 605070 <_GLOBAL_OFFSET_TABLE_+0x70>
  400d36:	68 0b 00 00 00       	pushq  $0xb
  400d3b:	e9 30 ff ff ff       	jmpq   400c70 <_init+0x28>

0000000000400d40 <read@plt>:
  400d40:	ff 25 32 43 20 00    	jmpq   *0x204332(%rip)        # 605078 <_GLOBAL_OFFSET_TABLE_+0x78>
  400d46:	68 0c 00 00 00       	pushq  $0xc
  400d4b:	e9 20 ff ff ff       	jmpq   400c70 <_init+0x28>

0000000000400d50 <__libc_start_main@plt>:
  400d50:	ff 25 2a 43 20 00    	jmpq   *0x20432a(%rip)        # 605080 <_GLOBAL_OFFSET_TABLE_+0x80>
  400d56:	68 0d 00 00 00       	pushq  $0xd
  400d5b:	e9 10 ff ff ff       	jmpq   400c70 <_init+0x28>

0000000000400d60 <signal@plt>:
  400d60:	ff 25 22 43 20 00    	jmpq   *0x204322(%rip)        # 605088 <_GLOBAL_OFFSET_TABLE_+0x88>
  400d66:	68 0e 00 00 00       	pushq  $0xe
  400d6b:	e9 00 ff ff ff       	jmpq   400c70 <_init+0x28>

0000000000400d70 <gethostbyname@plt>:
  400d70:	ff 25 1a 43 20 00    	jmpq   *0x20431a(%rip)        # 605090 <_GLOBAL_OFFSET_TABLE_+0x90>
  400d76:	68 0f 00 00 00       	pushq  $0xf
  400d7b:	e9 f0 fe ff ff       	jmpq   400c70 <_init+0x28>

0000000000400d80 <__memmove_chk@plt>:
  400d80:	ff 25 12 43 20 00    	jmpq   *0x204312(%rip)        # 605098 <_GLOBAL_OFFSET_TABLE_+0x98>
  400d86:	68 10 00 00 00       	pushq  $0x10
  400d8b:	e9 e0 fe ff ff       	jmpq   400c70 <_init+0x28>

0000000000400d90 <strtol@plt>:
  400d90:	ff 25 0a 43 20 00    	jmpq   *0x20430a(%rip)        # 6050a0 <_GLOBAL_OFFSET_TABLE_+0xa0>
  400d96:	68 11 00 00 00       	pushq  $0x11
  400d9b:	e9 d0 fe ff ff       	jmpq   400c70 <_init+0x28>

0000000000400da0 <memcpy@plt>:
  400da0:	ff 25 02 43 20 00    	jmpq   *0x204302(%rip)        # 6050a8 <_GLOBAL_OFFSET_TABLE_+0xa8>
  400da6:	68 12 00 00 00       	pushq  $0x12
  400dab:	e9 c0 fe ff ff       	jmpq   400c70 <_init+0x28>

0000000000400db0 <time@plt>:
  400db0:	ff 25 fa 42 20 00    	jmpq   *0x2042fa(%rip)        # 6050b0 <_GLOBAL_OFFSET_TABLE_+0xb0>
  400db6:	68 13 00 00 00       	pushq  $0x13
  400dbb:	e9 b0 fe ff ff       	jmpq   400c70 <_init+0x28>

0000000000400dc0 <random@plt>:
  400dc0:	ff 25 f2 42 20 00    	jmpq   *0x2042f2(%rip)        # 6050b8 <_GLOBAL_OFFSET_TABLE_+0xb8>
  400dc6:	68 14 00 00 00       	pushq  $0x14
  400dcb:	e9 a0 fe ff ff       	jmpq   400c70 <_init+0x28>

0000000000400dd0 <_IO_getc@plt>:
  400dd0:	ff 25 ea 42 20 00    	jmpq   *0x2042ea(%rip)        # 6050c0 <_GLOBAL_OFFSET_TABLE_+0xc0>
  400dd6:	68 15 00 00 00       	pushq  $0x15
  400ddb:	e9 90 fe ff ff       	jmpq   400c70 <_init+0x28>

0000000000400de0 <__isoc99_sscanf@plt>:
  400de0:	ff 25 e2 42 20 00    	jmpq   *0x2042e2(%rip)        # 6050c8 <_GLOBAL_OFFSET_TABLE_+0xc8>
  400de6:	68 16 00 00 00       	pushq  $0x16
  400deb:	e9 80 fe ff ff       	jmpq   400c70 <_init+0x28>

0000000000400df0 <munmap@plt>:
  400df0:	ff 25 da 42 20 00    	jmpq   *0x2042da(%rip)        # 6050d0 <_GLOBAL_OFFSET_TABLE_+0xd0>
  400df6:	68 17 00 00 00       	pushq  $0x17
  400dfb:	e9 70 fe ff ff       	jmpq   400c70 <_init+0x28>

0000000000400e00 <__printf_chk@plt>:
  400e00:	ff 25 d2 42 20 00    	jmpq   *0x2042d2(%rip)        # 6050d8 <_GLOBAL_OFFSET_TABLE_+0xd8>
  400e06:	68 18 00 00 00       	pushq  $0x18
  400e0b:	e9 60 fe ff ff       	jmpq   400c70 <_init+0x28>

0000000000400e10 <fopen@plt>:
  400e10:	ff 25 ca 42 20 00    	jmpq   *0x2042ca(%rip)        # 6050e0 <_GLOBAL_OFFSET_TABLE_+0xe0>
  400e16:	68 19 00 00 00       	pushq  $0x19
  400e1b:	e9 50 fe ff ff       	jmpq   400c70 <_init+0x28>

0000000000400e20 <getopt@plt>:
  400e20:	ff 25 c2 42 20 00    	jmpq   *0x2042c2(%rip)        # 6050e8 <_GLOBAL_OFFSET_TABLE_+0xe8>
  400e26:	68 1a 00 00 00       	pushq  $0x1a
  400e2b:	e9 40 fe ff ff       	jmpq   400c70 <_init+0x28>

0000000000400e30 <strtoul@plt>:
  400e30:	ff 25 ba 42 20 00    	jmpq   *0x2042ba(%rip)        # 6050f0 <_GLOBAL_OFFSET_TABLE_+0xf0>
  400e36:	68 1b 00 00 00       	pushq  $0x1b
  400e3b:	e9 30 fe ff ff       	jmpq   400c70 <_init+0x28>

0000000000400e40 <gethostname@plt>:
  400e40:	ff 25 b2 42 20 00    	jmpq   *0x2042b2(%rip)        # 6050f8 <_GLOBAL_OFFSET_TABLE_+0xf8>
  400e46:	68 1c 00 00 00       	pushq  $0x1c
  400e4b:	e9 20 fe ff ff       	jmpq   400c70 <_init+0x28>

0000000000400e50 <exit@plt>:
  400e50:	ff 25 aa 42 20 00    	jmpq   *0x2042aa(%rip)        # 605100 <_GLOBAL_OFFSET_TABLE_+0x100>
  400e56:	68 1d 00 00 00       	pushq  $0x1d
  400e5b:	e9 10 fe ff ff       	jmpq   400c70 <_init+0x28>

0000000000400e60 <connect@plt>:
  400e60:	ff 25 a2 42 20 00    	jmpq   *0x2042a2(%rip)        # 605108 <_GLOBAL_OFFSET_TABLE_+0x108>
  400e66:	68 1e 00 00 00       	pushq  $0x1e
  400e6b:	e9 00 fe ff ff       	jmpq   400c70 <_init+0x28>

0000000000400e70 <__fprintf_chk@plt>:
  400e70:	ff 25 9a 42 20 00    	jmpq   *0x20429a(%rip)        # 605110 <_GLOBAL_OFFSET_TABLE_+0x110>
  400e76:	68 1f 00 00 00       	pushq  $0x1f
  400e7b:	e9 f0 fd ff ff       	jmpq   400c70 <_init+0x28>

0000000000400e80 <__sprintf_chk@plt>:
  400e80:	ff 25 92 42 20 00    	jmpq   *0x204292(%rip)        # 605118 <_GLOBAL_OFFSET_TABLE_+0x118>
  400e86:	68 20 00 00 00       	pushq  $0x20
  400e8b:	e9 e0 fd ff ff       	jmpq   400c70 <_init+0x28>

0000000000400e90 <socket@plt>:
  400e90:	ff 25 8a 42 20 00    	jmpq   *0x20428a(%rip)        # 605120 <_GLOBAL_OFFSET_TABLE_+0x120>
  400e96:	68 21 00 00 00       	pushq  $0x21
  400e9b:	e9 d0 fd ff ff       	jmpq   400c70 <_init+0x28>

Disassembly of section .plt.got:

0000000000400ea0 <.plt.got>:
  400ea0:	ff 25 52 41 20 00    	jmpq   *0x204152(%rip)        # 604ff8 <_DYNAMIC+0x1d0>
  400ea6:	66 90                	xchg   %ax,%ax

Disassembly of section .text:

0000000000400eb0 <_start>:
  400eb0:	31 ed                	xor    %ebp,%ebp
  400eb2:	49 89 d1             	mov    %rdx,%r9
  400eb5:	5e                   	pop    %rsi
  400eb6:	48 89 e2             	mov    %rsp,%rdx
  400eb9:	48 83 e4 f0          	and    $0xfffffffffffffff0,%rsp
  400ebd:	50                   	push   %rax
  400ebe:	54                   	push   %rsp
  400ebf:	49 c7 c0 90 2e 40 00 	mov    $0x402e90,%r8
  400ec6:	48 c7 c1 20 2e 40 00 	mov    $0x402e20,%rcx
  400ecd:	48 c7 c7 b5 11 40 00 	mov    $0x4011b5,%rdi
  400ed4:	e8 77 fe ff ff       	callq  400d50 <__libc_start_main@plt>
  400ed9:	f4                   	hlt    
  400eda:	66 0f 1f 44 00 00    	nopw   0x0(%rax,%rax,1)

0000000000400ee0 <deregister_tm_clones>:
  400ee0:	b8 b7 54 60 00       	mov    $0x6054b7,%eax
  400ee5:	55                   	push   %rbp
  400ee6:	48 2d b0 54 60 00    	sub    $0x6054b0,%rax
  400eec:	48 83 f8 0e          	cmp    $0xe,%rax
  400ef0:	48 89 e5             	mov    %rsp,%rbp
  400ef3:	76 1b                	jbe    400f10 <deregister_tm_clones+0x30>
  400ef5:	b8 00 00 00 00       	mov    $0x0,%eax
  400efa:	48 85 c0             	test   %rax,%rax
  400efd:	74 11                	je     400f10 <deregister_tm_clones+0x30>
  400eff:	5d                   	pop    %rbp
  400f00:	bf b0 54 60 00       	mov    $0x6054b0,%edi
  400f05:	ff e0                	jmpq   *%rax
  400f07:	66 0f 1f 84 00 00 00 	nopw   0x0(%rax,%rax,1)
  400f0e:	00 00 
  400f10:	5d                   	pop    %rbp
  400f11:	c3                   	retq   
  400f12:	0f 1f 40 00          	nopl   0x0(%rax)
  400f16:	66 2e 0f 1f 84 00 00 	nopw   %cs:0x0(%rax,%rax,1)
  400f1d:	00 00 00 

0000000000400f20 <register_tm_clones>:
  400f20:	be b0 54 60 00       	mov    $0x6054b0,%esi
  400f25:	55                   	push   %rbp
  400f26:	48 81 ee b0 54 60 00 	sub    $0x6054b0,%rsi
  400f2d:	48 c1 fe 03          	sar    $0x3,%rsi
  400f31:	48 89 e5             	mov    %rsp,%rbp
  400f34:	48 89 f0             	mov    %rsi,%rax
  400f37:	48 c1 e8 3f          	shr    $0x3f,%rax
  400f3b:	48 01 c6             	add    %rax,%rsi
  400f3e:	48 d1 fe             	sar    %rsi
  400f41:	74 15                	je     400f58 <register_tm_clones+0x38>
  400f43:	b8 00 00 00 00       	mov    $0x0,%eax
  400f48:	48 85 c0             	test   %rax,%rax
  400f4b:	74 0b                	je     400f58 <register_tm_clones+0x38>
  400f4d:	5d                   	pop    %rbp
  400f4e:	bf b0 54 60 00       	mov    $0x6054b0,%edi
  400f53:	ff e0                	jmpq   *%rax
  400f55:	0f 1f 00             	nopl   (%rax)
  400f58:	5d                   	pop    %rbp
  400f59:	c3                   	retq   
  400f5a:	66 0f 1f 44 00 00    	nopw   0x0(%rax,%rax,1)

0000000000400f60 <__do_global_dtors_aux>:
  400f60:	80 3d 81 45 20 00 00 	cmpb   $0x0,0x204581(%rip)        # 6054e8 <completed.7585>
  400f67:	75 11                	jne    400f7a <__do_global_dtors_aux+0x1a>
  400f69:	55                   	push   %rbp
  400f6a:	48 89 e5             	mov    %rsp,%rbp
  400f6d:	e8 6e ff ff ff       	callq  400ee0 <deregister_tm_clones>
  400f72:	5d                   	pop    %rbp
  400f73:	c6 05 6e 45 20 00 01 	movb   $0x1,0x20456e(%rip)        # 6054e8 <completed.7585>
  400f7a:	f3 c3                	repz retq 
  400f7c:	0f 1f 40 00          	nopl   0x0(%rax)

0000000000400f80 <frame_dummy>:
  400f80:	bf 20 4e 60 00       	mov    $0x604e20,%edi
  400f85:	48 83 3f 00          	cmpq   $0x0,(%rdi)
  400f89:	75 05                	jne    400f90 <frame_dummy+0x10>
  400f8b:	eb 93                	jmp    400f20 <register_tm_clones>
  400f8d:	0f 1f 00             	nopl   (%rax)
  400f90:	b8 00 00 00 00       	mov    $0x0,%eax
  400f95:	48 85 c0             	test   %rax,%rax
  400f98:	74 f1                	je     400f8b <frame_dummy+0xb>
  400f9a:	55                   	push   %rbp
  400f9b:	48 89 e5             	mov    %rsp,%rbp
  400f9e:	ff d0                	callq  *%rax
  400fa0:	5d                   	pop    %rbp
  400fa1:	e9 7a ff ff ff       	jmpq   400f20 <register_tm_clones>

0000000000400fa6 <usage>:
  400fa6:	48 83 ec 08          	sub    $0x8,%rsp
  400faa:	48 89 fa             	mov    %rdi,%rdx
  400fad:	83 3d 74 45 20 00 00 	cmpl   $0x0,0x204574(%rip)        # 605528 <is_checker>
  400fb4:	74 3e                	je     400ff4 <usage+0x4e>
  400fb6:	be a8 2e 40 00       	mov    $0x402ea8,%esi
  400fbb:	bf 01 00 00 00       	mov    $0x1,%edi
  400fc0:	b8 00 00 00 00       	mov    $0x0,%eax
  400fc5:	e8 36 fe ff ff       	callq  400e00 <__printf_chk@plt>
  400fca:	bf e0 2e 40 00       	mov    $0x402ee0,%edi
  400fcf:	e8 fc fc ff ff       	callq  400cd0 <puts@plt>
  400fd4:	bf 58 30 40 00       	mov    $0x403058,%edi
  400fd9:	e8 f2 fc ff ff       	callq  400cd0 <puts@plt>
  400fde:	bf 08 2f 40 00       	mov    $0x402f08,%edi
  400fe3:	e8 e8 fc ff ff       	callq  400cd0 <puts@plt>
  400fe8:	bf 72 30 40 00       	mov    $0x403072,%edi
  400fed:	e8 de fc ff ff       	callq  400cd0 <puts@plt>
  400ff2:	eb 32                	jmp    401026 <usage+0x80>
  400ff4:	be 8e 30 40 00       	mov    $0x40308e,%esi
  400ff9:	bf 01 00 00 00       	mov    $0x1,%edi
  400ffe:	b8 00 00 00 00       	mov    $0x0,%eax
  401003:	e8 f8 fd ff ff       	callq  400e00 <__printf_chk@plt>
  401008:	bf 30 2f 40 00       	mov    $0x402f30,%edi
  40100d:	e8 be fc ff ff       	callq  400cd0 <puts@plt>
  401012:	bf 58 2f 40 00       	mov    $0x402f58,%edi
  401017:	e8 b4 fc ff ff       	callq  400cd0 <puts@plt>
  40101c:	bf ac 30 40 00       	mov    $0x4030ac,%edi
  401021:	e8 aa fc ff ff       	callq  400cd0 <puts@plt>
  401026:	bf 00 00 00 00       	mov    $0x0,%edi
  40102b:	e8 20 fe ff ff       	callq  400e50 <exit@plt>

0000000000401030 <initialize_target>:
  401030:	55                   	push   %rbp
  401031:	53                   	push   %rbx
  401032:	48 81 ec 18 21 00 00 	sub    $0x2118,%rsp
  401039:	89 f5                	mov    %esi,%ebp
  40103b:	64 48 8b 04 25 28 00 	mov    %fs:0x28,%rax
  401042:	00 00 
  401044:	48 89 84 24 08 21 00 	mov    %rax,0x2108(%rsp)
  40104b:	00 
  40104c:	31 c0                	xor    %eax,%eax
  40104e:	89 3d c4 44 20 00    	mov    %edi,0x2044c4(%rip)        # 605518 <check_level>
  401054:	8b 3d 0e 41 20 00    	mov    0x20410e(%rip),%edi        # 605168 <target_id>
  40105a:	e8 9a 1d 00 00       	callq  402df9 <gencookie>
  40105f:	89 05 bf 44 20 00    	mov    %eax,0x2044bf(%rip)        # 605524 <cookie>
  401065:	89 c7                	mov    %eax,%edi
  401067:	e8 8d 1d 00 00       	callq  402df9 <gencookie>
  40106c:	89 05 ae 44 20 00    	mov    %eax,0x2044ae(%rip)        # 605520 <authkey>
  401072:	8b 05 f0 40 20 00    	mov    0x2040f0(%rip),%eax        # 605168 <target_id>
  401078:	8d 78 01             	lea    0x1(%rax),%edi
  40107b:	e8 20 fc ff ff       	callq  400ca0 <srandom@plt>
  401080:	e8 3b fd ff ff       	callq  400dc0 <random@plt>
  401085:	89 c7                	mov    %eax,%edi
  401087:	e8 03 03 00 00       	callq  40138f <scramble>
  40108c:	89 c3                	mov    %eax,%ebx
  40108e:	85 ed                	test   %ebp,%ebp
  401090:	74 18                	je     4010aa <initialize_target+0x7a>
  401092:	bf 00 00 00 00       	mov    $0x0,%edi
  401097:	e8 14 fd ff ff       	callq  400db0 <time@plt>
  40109c:	89 c7                	mov    %eax,%edi
  40109e:	e8 fd fb ff ff       	callq  400ca0 <srandom@plt>
  4010a3:	e8 18 fd ff ff       	callq  400dc0 <random@plt>
  4010a8:	eb 05                	jmp    4010af <initialize_target+0x7f>
  4010aa:	b8 00 00 00 00       	mov    $0x0,%eax
  4010af:	01 c3                	add    %eax,%ebx
  4010b1:	0f b7 db             	movzwl %bx,%ebx
  4010b4:	8d 04 dd 00 01 00 00 	lea    0x100(,%rbx,8),%eax
  4010bb:	89 c0                	mov    %eax,%eax
  4010bd:	48 89 05 dc 43 20 00 	mov    %rax,0x2043dc(%rip)        # 6054a0 <buf_offset>
  4010c4:	c6 05 7d 50 20 00 63 	movb   $0x63,0x20507d(%rip)        # 606148 <target_prefix>
  4010cb:	83 3d d6 43 20 00 00 	cmpl   $0x0,0x2043d6(%rip)        # 6054a8 <notify>
  4010d2:	0f 84 bb 00 00 00    	je     401193 <initialize_target+0x163>
  4010d8:	83 3d 49 44 20 00 00 	cmpl   $0x0,0x204449(%rip)        # 605528 <is_checker>
  4010df:	0f 85 ae 00 00 00    	jne    401193 <initialize_target+0x163>
  4010e5:	be 00 01 00 00       	mov    $0x100,%esi
  4010ea:	48 89 e7             	mov    %rsp,%rdi
  4010ed:	e8 4e fd ff ff       	callq  400e40 <gethostname@plt>
  4010f2:	85 c0                	test   %eax,%eax
  4010f4:	74 25                	je     40111b <initialize_target+0xeb>
  4010f6:	bf 88 2f 40 00       	mov    $0x402f88,%edi
  4010fb:	e8 d0 fb ff ff       	callq  400cd0 <puts@plt>
  401100:	bf 08 00 00 00       	mov    $0x8,%edi
  401105:	e8 46 fd ff ff       	callq  400e50 <exit@plt>
  40110a:	48 89 e6             	mov    %rsp,%rsi
  40110d:	e8 6e fb ff ff       	callq  400c80 <strcasecmp@plt>
  401112:	85 c0                	test   %eax,%eax
  401114:	74 21                	je     401137 <initialize_target+0x107>
  401116:	83 c3 01             	add    $0x1,%ebx
  401119:	eb 05                	jmp    401120 <initialize_target+0xf0>
  40111b:	bb 00 00 00 00       	mov    $0x0,%ebx
  401120:	48 63 c3             	movslq %ebx,%rax
  401123:	48 8b 3c c5 80 51 60 	mov    0x605180(,%rax,8),%rdi
  40112a:	00 
  40112b:	48 85 ff             	test   %rdi,%rdi
  40112e:	75 da                	jne    40110a <initialize_target+0xda>
  401130:	b8 00 00 00 00       	mov    $0x0,%eax
  401135:	eb 05                	jmp    40113c <initialize_target+0x10c>
  401137:	b8 01 00 00 00       	mov    $0x1,%eax
  40113c:	85 c0                	test   %eax,%eax
  40113e:	75 1c                	jne    40115c <initialize_target+0x12c>
  401140:	48 89 e2             	mov    %rsp,%rdx
  401143:	be c0 2f 40 00       	mov    $0x402fc0,%esi
  401148:	bf 01 00 00 00       	mov    $0x1,%edi
  40114d:	e8 ae fc ff ff       	callq  400e00 <__printf_chk@plt>
  401152:	bf 08 00 00 00       	mov    $0x8,%edi
  401157:	e8 f4 fc ff ff       	callq  400e50 <exit@plt>
  40115c:	48 8d bc 24 00 01 00 	lea    0x100(%rsp),%rdi
  401163:	00 
  401164:	e8 fa 19 00 00       	callq  402b63 <init_driver>
  401169:	85 c0                	test   %eax,%eax
  40116b:	79 26                	jns    401193 <initialize_target+0x163>
  40116d:	48 8d 94 24 00 01 00 	lea    0x100(%rsp),%rdx
  401174:	00 
  401175:	be 00 30 40 00       	mov    $0x403000,%esi
  40117a:	bf 01 00 00 00       	mov    $0x1,%edi
  40117f:	b8 00 00 00 00       	mov    $0x0,%eax
  401184:	e8 77 fc ff ff       	callq  400e00 <__printf_chk@plt>
  401189:	bf 08 00 00 00       	mov    $0x8,%edi
  40118e:	e8 bd fc ff ff       	callq  400e50 <exit@plt>
  401193:	48 8b 84 24 08 21 00 	mov    0x2108(%rsp),%rax
  40119a:	00 
  40119b:	64 48 33 04 25 28 00 	xor    %fs:0x28,%rax
  4011a2:	00 00 
  4011a4:	74 05                	je     4011ab <initialize_target+0x17b>
  4011a6:	e8 45 fb ff ff       	callq  400cf0 <__stack_chk_fail@plt>
  4011ab:	48 81 c4 18 21 00 00 	add    $0x2118,%rsp
  4011b2:	5b                   	pop    %rbx
  4011b3:	5d                   	pop    %rbp
  4011b4:	c3                   	retq   

00000000004011b5 <main>:
  4011b5:	41 56                	push   %r14
  4011b7:	41 55                	push   %r13
  4011b9:	41 54                	push   %r12
  4011bb:	55                   	push   %rbp
  4011bc:	53                   	push   %rbx
  4011bd:	41 89 fc             	mov    %edi,%r12d
  4011c0:	48 89 f3             	mov    %rsi,%rbx
  4011c3:	be 9e 1e 40 00       	mov    $0x401e9e,%esi
  4011c8:	bf 0b 00 00 00       	mov    $0xb,%edi
  4011cd:	e8 8e fb ff ff       	callq  400d60 <signal@plt>
  4011d2:	be 50 1e 40 00       	mov    $0x401e50,%esi
  4011d7:	bf 07 00 00 00       	mov    $0x7,%edi
  4011dc:	e8 7f fb ff ff       	callq  400d60 <signal@plt>
  4011e1:	be ec 1e 40 00       	mov    $0x401eec,%esi
  4011e6:	bf 04 00 00 00       	mov    $0x4,%edi
  4011eb:	e8 70 fb ff ff       	callq  400d60 <signal@plt>
  4011f0:	83 3d 31 43 20 00 00 	cmpl   $0x0,0x204331(%rip)        # 605528 <is_checker>
  4011f7:	74 20                	je     401219 <main+0x64>
  4011f9:	be 3a 1f 40 00       	mov    $0x401f3a,%esi
  4011fe:	bf 0e 00 00 00       	mov    $0xe,%edi
  401203:	e8 58 fb ff ff       	callq  400d60 <signal@plt>
  401208:	bf 05 00 00 00       	mov    $0x5,%edi
  40120d:	e8 0e fb ff ff       	callq  400d20 <alarm@plt>
  401212:	bd ca 30 40 00       	mov    $0x4030ca,%ebp
  401217:	eb 05                	jmp    40121e <main+0x69>
  401219:	bd c5 30 40 00       	mov    $0x4030c5,%ebp
  40121e:	48 8b 05 9b 42 20 00 	mov    0x20429b(%rip),%rax        # 6054c0 <stdin@@GLIBC_2.2.5>
  401225:	48 89 05 e4 42 20 00 	mov    %rax,0x2042e4(%rip)        # 605510 <infile>
  40122c:	41 bd 00 00 00 00    	mov    $0x0,%r13d
  401232:	41 be 00 00 00 00    	mov    $0x0,%r14d
  401238:	e9 c6 00 00 00       	jmpq   401303 <main+0x14e>
  40123d:	83 e8 61             	sub    $0x61,%eax
  401240:	3c 10                	cmp    $0x10,%al
  401242:	0f 87 9c 00 00 00    	ja     4012e4 <main+0x12f>
  401248:	0f b6 c0             	movzbl %al,%eax
  40124b:	ff 24 c5 10 31 40 00 	jmpq   *0x403110(,%rax,8)
  401252:	48 8b 3b             	mov    (%rbx),%rdi
  401255:	e8 4c fd ff ff       	callq  400fa6 <usage>
  40125a:	be 70 32 40 00       	mov    $0x403270,%esi
  40125f:	48 8b 3d 62 42 20 00 	mov    0x204262(%rip),%rdi        # 6054c8 <optarg@@GLIBC_2.2.5>
  401266:	e8 a5 fb ff ff       	callq  400e10 <fopen@plt>
  40126b:	48 89 05 9e 42 20 00 	mov    %rax,0x20429e(%rip)        # 605510 <infile>
  401272:	48 85 c0             	test   %rax,%rax
  401275:	0f 85 88 00 00 00    	jne    401303 <main+0x14e>
  40127b:	48 8b 0d 46 42 20 00 	mov    0x204246(%rip),%rcx        # 6054c8 <optarg@@GLIBC_2.2.5>
  401282:	ba d2 30 40 00       	mov    $0x4030d2,%edx
  401287:	be 01 00 00 00       	mov    $0x1,%esi
  40128c:	48 8b 3d 4d 42 20 00 	mov    0x20424d(%rip),%rdi        # 6054e0 <stderr@@GLIBC_2.2.5>
  401293:	e8 d8 fb ff ff       	callq  400e70 <__fprintf_chk@plt>
  401298:	b8 01 00 00 00       	mov    $0x1,%eax
  40129d:	e9 e4 00 00 00       	jmpq   401386 <main+0x1d1>
  4012a2:	ba 10 00 00 00       	mov    $0x10,%edx
  4012a7:	be 00 00 00 00       	mov    $0x0,%esi
  4012ac:	48 8b 3d 15 42 20 00 	mov    0x204215(%rip),%rdi        # 6054c8 <optarg@@GLIBC_2.2.5>
  4012b3:	e8 78 fb ff ff       	callq  400e30 <strtoul@plt>
  4012b8:	41 89 c6             	mov    %eax,%r14d
  4012bb:	eb 46                	jmp    401303 <main+0x14e>
  4012bd:	ba 0a 00 00 00       	mov    $0xa,%edx
  4012c2:	be 00 00 00 00       	mov    $0x0,%esi
  4012c7:	48 8b 3d fa 41 20 00 	mov    0x2041fa(%rip),%rdi        # 6054c8 <optarg@@GLIBC_2.2.5>
  4012ce:	e8 bd fa ff ff       	callq  400d90 <strtol@plt>
  4012d3:	41 89 c5             	mov    %eax,%r13d
  4012d6:	eb 2b                	jmp    401303 <main+0x14e>
  4012d8:	c7 05 c6 41 20 00 00 	movl   $0x0,0x2041c6(%rip)        # 6054a8 <notify>
  4012df:	00 00 00 
  4012e2:	eb 1f                	jmp    401303 <main+0x14e>
  4012e4:	0f be d2             	movsbl %dl,%edx
  4012e7:	be ef 30 40 00       	mov    $0x4030ef,%esi
  4012ec:	bf 01 00 00 00       	mov    $0x1,%edi
  4012f1:	b8 00 00 00 00       	mov    $0x0,%eax
  4012f6:	e8 05 fb ff ff       	callq  400e00 <__printf_chk@plt>
  4012fb:	48 8b 3b             	mov    (%rbx),%rdi
  4012fe:	e8 a3 fc ff ff       	callq  400fa6 <usage>
  401303:	48 89 ea             	mov    %rbp,%rdx
  401306:	48 89 de             	mov    %rbx,%rsi
  401309:	44 89 e7             	mov    %r12d,%edi
  40130c:	e8 0f fb ff ff       	callq  400e20 <getopt@plt>
  401311:	89 c2                	mov    %eax,%edx
  401313:	3c ff                	cmp    $0xff,%al
  401315:	0f 85 22 ff ff ff    	jne    40123d <main+0x88>
  40131b:	be 00 00 00 00       	mov    $0x0,%esi
  401320:	44 89 ef             	mov    %r13d,%edi
  401323:	e8 08 fd ff ff       	callq  401030 <initialize_target>
  401328:	83 3d f9 41 20 00 00 	cmpl   $0x0,0x2041f9(%rip)        # 605528 <is_checker>
  40132f:	74 2a                	je     40135b <main+0x1a6>
  401331:	44 3b 35 e8 41 20 00 	cmp    0x2041e8(%rip),%r14d        # 605520 <authkey>
  401338:	74 21                	je     40135b <main+0x1a6>
  40133a:	44 89 f2             	mov    %r14d,%edx
  40133d:	be 28 30 40 00       	mov    $0x403028,%esi
  401342:	bf 01 00 00 00       	mov    $0x1,%edi
  401347:	b8 00 00 00 00       	mov    $0x0,%eax
  40134c:	e8 af fa ff ff       	callq  400e00 <__printf_chk@plt>
  401351:	b8 00 00 00 00       	mov    $0x0,%eax
  401356:	e8 91 07 00 00       	callq  401aec <check_fail>
  40135b:	8b 15 c3 41 20 00    	mov    0x2041c3(%rip),%edx        # 605524 <cookie>
  401361:	be 02 31 40 00       	mov    $0x403102,%esi
  401366:	bf 01 00 00 00       	mov    $0x1,%edi
  40136b:	b8 00 00 00 00       	mov    $0x0,%eax
  401370:	e8 8b fa ff ff       	callq  400e00 <__printf_chk@plt>
  401375:	48 8b 3d 24 41 20 00 	mov    0x204124(%rip),%rdi        # 6054a0 <buf_offset>
  40137c:	e8 b9 0c 00 00       	callq  40203a <stable_launch>
  401381:	b8 00 00 00 00       	mov    $0x0,%eax
  401386:	5b                   	pop    %rbx
  401387:	5d                   	pop    %rbp
  401388:	41 5c                	pop    %r12
  40138a:	41 5d                	pop    %r13
  40138c:	41 5e                	pop    %r14
  40138e:	c3                   	retq   

000000000040138f <scramble>:
  40138f:	48 83 ec 38          	sub    $0x38,%rsp
  401393:	64 48 8b 04 25 28 00 	mov    %fs:0x28,%rax
  40139a:	00 00 
  40139c:	48 89 44 24 28       	mov    %rax,0x28(%rsp)
  4013a1:	31 c0                	xor    %eax,%eax
  4013a3:	eb 10                	jmp    4013b5 <scramble+0x26>
  4013a5:	69 d0 b8 37 00 00    	imul   $0x37b8,%eax,%edx
  4013ab:	01 fa                	add    %edi,%edx
  4013ad:	89 c1                	mov    %eax,%ecx
  4013af:	89 14 8c             	mov    %edx,(%rsp,%rcx,4)
  4013b2:	83 c0 01             	add    $0x1,%eax
  4013b5:	83 f8 09             	cmp    $0x9,%eax
  4013b8:	76 eb                	jbe    4013a5 <scramble+0x16>
  4013ba:	8b 44 24 24          	mov    0x24(%rsp),%eax
  4013be:	69 c0 e3 d4 00 00    	imul   $0xd4e3,%eax,%eax
  4013c4:	89 44 24 24          	mov    %eax,0x24(%rsp)
  4013c8:	8b 04 24             	mov    (%rsp),%eax
  4013cb:	69 c0 b1 ba 00 00    	imul   $0xbab1,%eax,%eax
  4013d1:	89 04 24             	mov    %eax,(%rsp)
  4013d4:	8b 44 24 24          	mov    0x24(%rsp),%eax
  4013d8:	69 c0 13 36 00 00    	imul   $0x3613,%eax,%eax
  4013de:	89 44 24 24          	mov    %eax,0x24(%rsp)
  4013e2:	8b 44 24 04          	mov    0x4(%rsp),%eax
  4013e6:	69 c0 bd 24 00 00    	imul   $0x24bd,%eax,%eax
  4013ec:	89 44 24 04          	mov    %eax,0x4(%rsp)
  4013f0:	8b 44 24 10          	mov    0x10(%rsp),%eax
  4013f4:	69 c0 26 77 00 00    	imul   $0x7726,%eax,%eax
  4013fa:	89 44 24 10          	mov    %eax,0x10(%rsp)
  4013fe:	8b 44 24 08          	mov    0x8(%rsp),%eax
  401402:	69 c0 f4 e5 00 00    	imul   $0xe5f4,%eax,%eax
  401408:	89 44 24 08          	mov    %eax,0x8(%rsp)
  40140c:	8b 44 24 24          	mov    0x24(%rsp),%eax
  401410:	69 c0 6f f8 00 00    	imul   $0xf86f,%eax,%eax
  401416:	89 44 24 24          	mov    %eax,0x24(%rsp)
  40141a:	8b 44 24 04          	mov    0x4(%rsp),%eax
  40141e:	69 c0 88 e6 00 00    	imul   $0xe688,%eax,%eax
  401424:	89 44 24 04          	mov    %eax,0x4(%rsp)
  401428:	8b 44 24 08          	mov    0x8(%rsp),%eax
  40142c:	69 c0 81 7d 00 00    	imul   $0x7d81,%eax,%eax
  401432:	89 44 24 08          	mov    %eax,0x8(%rsp)
  401436:	8b 44 24 08          	mov    0x8(%rsp),%eax
  40143a:	69 c0 e5 ec 00 00    	imul   $0xece5,%eax,%eax
  401440:	89 44 24 08          	mov    %eax,0x8(%rsp)
  401444:	8b 44 24 20          	mov    0x20(%rsp),%eax
  401448:	69 c0 6a ff 00 00    	imul   $0xff6a,%eax,%eax
  40144e:	89 44 24 20          	mov    %eax,0x20(%rsp)
  401452:	8b 44 24 04          	mov    0x4(%rsp),%eax
  401456:	69 c0 04 7e 00 00    	imul   $0x7e04,%eax,%eax
  40145c:	89 44 24 04          	mov    %eax,0x4(%rsp)
  401460:	8b 04 24             	mov    (%rsp),%eax
  401463:	69 c0 27 e1 00 00    	imul   $0xe127,%eax,%eax
  401469:	89 04 24             	mov    %eax,(%rsp)
  40146c:	8b 44 24 14          	mov    0x14(%rsp),%eax
  401470:	69 c0 78 ec 00 00    	imul   $0xec78,%eax,%eax
  401476:	89 44 24 14          	mov    %eax,0x14(%rsp)
  40147a:	8b 44 24 10          	mov    0x10(%rsp),%eax
  40147e:	69 c0 e9 c8 00 00    	imul   $0xc8e9,%eax,%eax
  401484:	89 44 24 10          	mov    %eax,0x10(%rsp)
  401488:	8b 44 24 20          	mov    0x20(%rsp),%eax
  40148c:	69 c0 ff 49 00 00    	imul   $0x49ff,%eax,%eax
  401492:	89 44 24 20          	mov    %eax,0x20(%rsp)
  401496:	8b 44 24 18          	mov    0x18(%rsp),%eax
  40149a:	69 c0 c5 49 00 00    	imul   $0x49c5,%eax,%eax
  4014a0:	89 44 24 18          	mov    %eax,0x18(%rsp)
  4014a4:	8b 44 24 18          	mov    0x18(%rsp),%eax
  4014a8:	69 c0 94 76 00 00    	imul   $0x7694,%eax,%eax
  4014ae:	89 44 24 18          	mov    %eax,0x18(%rsp)
  4014b2:	8b 04 24             	mov    (%rsp),%eax
  4014b5:	69 c0 7b 34 00 00    	imul   $0x347b,%eax,%eax
  4014bb:	89 04 24             	mov    %eax,(%rsp)
  4014be:	8b 44 24 08          	mov    0x8(%rsp),%eax
  4014c2:	69 c0 fc 0a 00 00    	imul   $0xafc,%eax,%eax
  4014c8:	89 44 24 08          	mov    %eax,0x8(%rsp)
  4014cc:	8b 44 24 18          	mov    0x18(%rsp),%eax
  4014d0:	69 c0 9e 61 00 00    	imul   $0x619e,%eax,%eax
  4014d6:	89 44 24 18          	mov    %eax,0x18(%rsp)
  4014da:	8b 44 24 1c          	mov    0x1c(%rsp),%eax
  4014de:	69 c0 06 f9 00 00    	imul   $0xf906,%eax,%eax
  4014e4:	89 44 24 1c          	mov    %eax,0x1c(%rsp)
  4014e8:	8b 44 24 18          	mov    0x18(%rsp),%eax
  4014ec:	69 c0 07 e8 00 00    	imul   $0xe807,%eax,%eax
  4014f2:	89 44 24 18          	mov    %eax,0x18(%rsp)
  4014f6:	8b 44 24 1c          	mov    0x1c(%rsp),%eax
  4014fa:	69 c0 8f d8 00 00    	imul   $0xd88f,%eax,%eax
  401500:	89 44 24 1c          	mov    %eax,0x1c(%rsp)
  401504:	8b 44 24 18          	mov    0x18(%rsp),%eax
  401508:	69 c0 e3 e5 00 00    	imul   $0xe5e3,%eax,%eax
  40150e:	89 44 24 18          	mov    %eax,0x18(%rsp)
  401512:	8b 44 24 04          	mov    0x4(%rsp),%eax
  401516:	69 c0 71 60 00 00    	imul   $0x6071,%eax,%eax
  40151c:	89 44 24 04          	mov    %eax,0x4(%rsp)
  401520:	8b 44 24 24          	mov    0x24(%rsp),%eax
  401524:	69 c0 8e 0e 00 00    	imul   $0xe8e,%eax,%eax
  40152a:	89 44 24 24          	mov    %eax,0x24(%rsp)
  40152e:	8b 04 24             	mov    (%rsp),%eax
  401531:	69 c0 d8 c2 00 00    	imul   $0xc2d8,%eax,%eax
  401537:	89 04 24             	mov    %eax,(%rsp)
  40153a:	8b 04 24             	mov    (%rsp),%eax
  40153d:	69 c0 dc 43 00 00    	imul   $0x43dc,%eax,%eax
  401543:	89 04 24             	mov    %eax,(%rsp)
  401546:	8b 44 24 04          	mov    0x4(%rsp),%eax
  40154a:	69 c0 fd 01 00 00    	imul   $0x1fd,%eax,%eax
  401550:	89 44 24 04          	mov    %eax,0x4(%rsp)
  401554:	8b 44 24 0c          	mov    0xc(%rsp),%eax
  401558:	69 c0 e4 72 00 00    	imul   $0x72e4,%eax,%eax
  40155e:	89 44 24 0c          	mov    %eax,0xc(%rsp)
  401562:	8b 44 24 04          	mov    0x4(%rsp),%eax
  401566:	69 c0 92 aa 00 00    	imul   $0xaa92,%eax,%eax
  40156c:	89 44 24 04          	mov    %eax,0x4(%rsp)
  401570:	8b 04 24             	mov    (%rsp),%eax
  401573:	69 c0 ad 50 00 00    	imul   $0x50ad,%eax,%eax
  401579:	89 04 24             	mov    %eax,(%rsp)
  40157c:	8b 44 24 1c          	mov    0x1c(%rsp),%eax
  401580:	69 c0 82 3c 00 00    	imul   $0x3c82,%eax,%eax
  401586:	89 44 24 1c          	mov    %eax,0x1c(%rsp)
  40158a:	8b 44 24 20          	mov    0x20(%rsp),%eax
  40158e:	69 c0 78 bc 00 00    	imul   $0xbc78,%eax,%eax
  401594:	89 44 24 20          	mov    %eax,0x20(%rsp)
  401598:	8b 44 24 18          	mov    0x18(%rsp),%eax
  40159c:	69 c0 cb 30 00 00    	imul   $0x30cb,%eax,%eax
  4015a2:	89 44 24 18          	mov    %eax,0x18(%rsp)
  4015a6:	8b 44 24 1c          	mov    0x1c(%rsp),%eax
  4015aa:	69 c0 6e 38 00 00    	imul   $0x386e,%eax,%eax
  4015b0:	89 44 24 1c          	mov    %eax,0x1c(%rsp)
  4015b4:	8b 44 24 0c          	mov    0xc(%rsp),%eax
  4015b8:	69 c0 24 78 00 00    	imul   $0x7824,%eax,%eax
  4015be:	89 44 24 0c          	mov    %eax,0xc(%rsp)
  4015c2:	8b 44 24 1c          	mov    0x1c(%rsp),%eax
  4015c6:	69 c0 5f 09 00 00    	imul   $0x95f,%eax,%eax
  4015cc:	89 44 24 1c          	mov    %eax,0x1c(%rsp)
  4015d0:	8b 44 24 18          	mov    0x18(%rsp),%eax
  4015d4:	69 c0 fe 85 00 00    	imul   $0x85fe,%eax,%eax
  4015da:	89 44 24 18          	mov    %eax,0x18(%rsp)
  4015de:	8b 44 24 0c          	mov    0xc(%rsp),%eax
  4015e2:	69 c0 27 16 00 00    	imul   $0x1627,%eax,%eax
  4015e8:	89 44 24 0c          	mov    %eax,0xc(%rsp)
  4015ec:	8b 04 24             	mov    (%rsp),%eax
  4015ef:	69 c0 90 d4 00 00    	imul   $0xd490,%eax,%eax
  4015f5:	89 04 24             	mov    %eax,(%rsp)
  4015f8:	8b 44 24 08          	mov    0x8(%rsp),%eax
  4015fc:	69 c0 e5 c4 00 00    	imul   $0xc4e5,%eax,%eax
  401602:	89 44 24 08          	mov    %eax,0x8(%rsp)
  401606:	8b 44 24 14          	mov    0x14(%rsp),%eax
  40160a:	69 c0 6c 14 00 00    	imul   $0x146c,%eax,%eax
  401610:	89 44 24 14          	mov    %eax,0x14(%rsp)
  401614:	8b 44 24 24          	mov    0x24(%rsp),%eax
  401618:	69 c0 b9 46 00 00    	imul   $0x46b9,%eax,%eax
  40161e:	89 44 24 24          	mov    %eax,0x24(%rsp)
  401622:	8b 44 24 1c          	mov    0x1c(%rsp),%eax
  401626:	69 c0 86 15 00 00    	imul   $0x1586,%eax,%eax
  40162c:	89 44 24 1c          	mov    %eax,0x1c(%rsp)
  401630:	8b 44 24 20          	mov    0x20(%rsp),%eax
  401634:	69 c0 66 62 00 00    	imul   $0x6266,%eax,%eax
  40163a:	89 44 24 20          	mov    %eax,0x20(%rsp)
  40163e:	8b 44 24 10          	mov    0x10(%rsp),%eax
  401642:	69 c0 47 76 00 00    	imul   $0x7647,%eax,%eax
  401648:	89 44 24 10          	mov    %eax,0x10(%rsp)
  40164c:	8b 44 24 24          	mov    0x24(%rsp),%eax
  401650:	69 c0 3f e1 00 00    	imul   $0xe13f,%eax,%eax
  401656:	89 44 24 24          	mov    %eax,0x24(%rsp)
  40165a:	8b 44 24 04          	mov    0x4(%rsp),%eax
  40165e:	69 c0 3d 38 00 00    	imul   $0x383d,%eax,%eax
  401664:	89 44 24 04          	mov    %eax,0x4(%rsp)
  401668:	8b 44 24 08          	mov    0x8(%rsp),%eax
  40166c:	69 c0 47 fa 00 00    	imul   $0xfa47,%eax,%eax
  401672:	89 44 24 08          	mov    %eax,0x8(%rsp)
  401676:	8b 44 24 14          	mov    0x14(%rsp),%eax
  40167a:	69 c0 ce bb 00 00    	imul   $0xbbce,%eax,%eax
  401680:	89 44 24 14          	mov    %eax,0x14(%rsp)
  401684:	8b 44 24 10          	mov    0x10(%rsp),%eax
  401688:	69 c0 d9 92 00 00    	imul   $0x92d9,%eax,%eax
  40168e:	89 44 24 10          	mov    %eax,0x10(%rsp)
  401692:	8b 44 24 18          	mov    0x18(%rsp),%eax
  401696:	69 c0 2a 53 00 00    	imul   $0x532a,%eax,%eax
  40169c:	89 44 24 18          	mov    %eax,0x18(%rsp)
  4016a0:	8b 44 24 14          	mov    0x14(%rsp),%eax
  4016a4:	69 c0 a5 84 00 00    	imul   $0x84a5,%eax,%eax
  4016aa:	89 44 24 14          	mov    %eax,0x14(%rsp)
  4016ae:	8b 44 24 20          	mov    0x20(%rsp),%eax
  4016b2:	69 c0 7b 8b 00 00    	imul   $0x8b7b,%eax,%eax
  4016b8:	89 44 24 20          	mov    %eax,0x20(%rsp)
  4016bc:	8b 44 24 0c          	mov    0xc(%rsp),%eax
  4016c0:	69 c0 98 bf 00 00    	imul   $0xbf98,%eax,%eax
  4016c6:	89 44 24 0c          	mov    %eax,0xc(%rsp)
  4016ca:	8b 44 24 0c          	mov    0xc(%rsp),%eax
  4016ce:	69 c0 82 bf 00 00    	imul   $0xbf82,%eax,%eax
  4016d4:	89 44 24 0c          	mov    %eax,0xc(%rsp)
  4016d8:	8b 44 24 08          	mov    0x8(%rsp),%eax
  4016dc:	69 c0 73 f7 00 00    	imul   $0xf773,%eax,%eax
  4016e2:	89 44 24 08          	mov    %eax,0x8(%rsp)
  4016e6:	8b 44 24 20          	mov    0x20(%rsp),%eax
  4016ea:	69 c0 3e 8d 00 00    	imul   $0x8d3e,%eax,%eax
  4016f0:	89 44 24 20          	mov    %eax,0x20(%rsp)
  4016f4:	8b 44 24 24          	mov    0x24(%rsp),%eax
  4016f8:	69 c0 58 ea 00 00    	imul   $0xea58,%eax,%eax
  4016fe:	89 44 24 24          	mov    %eax,0x24(%rsp)
  401702:	8b 44 24 18          	mov    0x18(%rsp),%eax
  401706:	69 c0 ca f7 00 00    	imul   $0xf7ca,%eax,%eax
  40170c:	89 44 24 18          	mov    %eax,0x18(%rsp)
  401710:	8b 44 24 24          	mov    0x24(%rsp),%eax
  401714:	69 c0 dd 62 00 00    	imul   $0x62dd,%eax,%eax
  40171a:	89 44 24 24          	mov    %eax,0x24(%rsp)
  40171e:	8b 44 24 20          	mov    0x20(%rsp),%eax
  401722:	69 c0 d2 ff 00 00    	imul   $0xffd2,%eax,%eax
  401728:	89 44 24 20          	mov    %eax,0x20(%rsp)
  40172c:	8b 44 24 0c          	mov    0xc(%rsp),%eax
  401730:	69 c0 da 20 00 00    	imul   $0x20da,%eax,%eax
  401736:	89 44 24 0c          	mov    %eax,0xc(%rsp)
  40173a:	8b 44 24 24          	mov    0x24(%rsp),%eax
  40173e:	69 c0 d4 e1 00 00    	imul   $0xe1d4,%eax,%eax
  401744:	89 44 24 24          	mov    %eax,0x24(%rsp)
  401748:	8b 04 24             	mov    (%rsp),%eax
  40174b:	69 c0 17 a1 00 00    	imul   $0xa117,%eax,%eax
  401751:	89 04 24             	mov    %eax,(%rsp)
  401754:	8b 04 24             	mov    (%rsp),%eax
  401757:	69 c0 d6 4d 00 00    	imul   $0x4dd6,%eax,%eax
  40175d:	89 04 24             	mov    %eax,(%rsp)
  401760:	8b 44 24 20          	mov    0x20(%rsp),%eax
  401764:	69 c0 94 d1 00 00    	imul   $0xd194,%eax,%eax
  40176a:	89 44 24 20          	mov    %eax,0x20(%rsp)
  40176e:	8b 44 24 24          	mov    0x24(%rsp),%eax
  401772:	69 c0 29 d0 00 00    	imul   $0xd029,%eax,%eax
  401778:	89 44 24 24          	mov    %eax,0x24(%rsp)
  40177c:	8b 44 24 08          	mov    0x8(%rsp),%eax
  401780:	69 c0 29 7a 00 00    	imul   $0x7a29,%eax,%eax
  401786:	89 44 24 08          	mov    %eax,0x8(%rsp)
  40178a:	8b 44 24 10          	mov    0x10(%rsp),%eax
  40178e:	69 c0 05 f1 00 00    	imul   $0xf105,%eax,%eax
  401794:	89 44 24 10          	mov    %eax,0x10(%rsp)
  401798:	8b 04 24             	mov    (%rsp),%eax
  40179b:	69 c0 af bb 00 00    	imul   $0xbbaf,%eax,%eax
  4017a1:	89 04 24             	mov    %eax,(%rsp)
  4017a4:	8b 04 24             	mov    (%rsp),%eax
  4017a7:	69 c0 3f be 00 00    	imul   $0xbe3f,%eax,%eax
  4017ad:	89 04 24             	mov    %eax,(%rsp)
  4017b0:	8b 04 24             	mov    (%rsp),%eax
  4017b3:	69 c0 76 84 00 00    	imul   $0x8476,%eax,%eax
  4017b9:	89 04 24             	mov    %eax,(%rsp)
  4017bc:	8b 44 24 18          	mov    0x18(%rsp),%eax
  4017c0:	69 c0 4f f1 00 00    	imul   $0xf14f,%eax,%eax
  4017c6:	89 44 24 18          	mov    %eax,0x18(%rsp)
  4017ca:	8b 44 24 24          	mov    0x24(%rsp),%eax
  4017ce:	69 c0 43 ee 00 00    	imul   $0xee43,%eax,%eax
  4017d4:	89 44 24 24          	mov    %eax,0x24(%rsp)
  4017d8:	8b 44 24 20          	mov    0x20(%rsp),%eax
  4017dc:	69 c0 8d bb 00 00    	imul   $0xbb8d,%eax,%eax
  4017e2:	89 44 24 20          	mov    %eax,0x20(%rsp)
  4017e6:	8b 44 24 1c          	mov    0x1c(%rsp),%eax
  4017ea:	69 c0 2a 57 00 00    	imul   $0x572a,%eax,%eax
  4017f0:	89 44 24 1c          	mov    %eax,0x1c(%rsp)
  4017f4:	8b 04 24             	mov    (%rsp),%eax
  4017f7:	69 c0 3d 95 00 00    	imul   $0x953d,%eax,%eax
  4017fd:	89 04 24             	mov    %eax,(%rsp)
  401800:	8b 44 24 04          	mov    0x4(%rsp),%eax
  401804:	69 c0 6f f3 00 00    	imul   $0xf36f,%eax,%eax
  40180a:	89 44 24 04          	mov    %eax,0x4(%rsp)
  40180e:	8b 44 24 08          	mov    0x8(%rsp),%eax
  401812:	69 c0 25 93 00 00    	imul   $0x9325,%eax,%eax
  401818:	89 44 24 08          	mov    %eax,0x8(%rsp)
  40181c:	8b 44 24 1c          	mov    0x1c(%rsp),%eax
  401820:	69 c0 b3 14 00 00    	imul   $0x14b3,%eax,%eax
  401826:	89 44 24 1c          	mov    %eax,0x1c(%rsp)
  40182a:	8b 44 24 24          	mov    0x24(%rsp),%eax
  40182e:	69 c0 77 c8 00 00    	imul   $0xc877,%eax,%eax
  401834:	89 44 24 24          	mov    %eax,0x24(%rsp)
  401838:	8b 44 24 08          	mov    0x8(%rsp),%eax
  40183c:	69 c0 fb 81 00 00    	imul   $0x81fb,%eax,%eax
  401842:	89 44 24 08          	mov    %eax,0x8(%rsp)
  401846:	8b 44 24 04          	mov    0x4(%rsp),%eax
  40184a:	69 c0 80 3c 00 00    	imul   $0x3c80,%eax,%eax
  401850:	89 44 24 04          	mov    %eax,0x4(%rsp)
  401854:	8b 44 24 1c          	mov    0x1c(%rsp),%eax
  401858:	69 c0 44 f4 00 00    	imul   $0xf444,%eax,%eax
  40185e:	89 44 24 1c          	mov    %eax,0x1c(%rsp)
  401862:	ba 00 00 00 00       	mov    $0x0,%edx
  401867:	b8 00 00 00 00       	mov    $0x0,%eax
  40186c:	eb 0a                	jmp    401878 <scramble+0x4e9>
  40186e:	89 d1                	mov    %edx,%ecx
  401870:	8b 0c 8c             	mov    (%rsp,%rcx,4),%ecx
  401873:	01 c8                	add    %ecx,%eax
  401875:	83 c2 01             	add    $0x1,%edx
  401878:	83 fa 09             	cmp    $0x9,%edx
  40187b:	76 f1                	jbe    40186e <scramble+0x4df>
  40187d:	48 8b 74 24 28       	mov    0x28(%rsp),%rsi
  401882:	64 48 33 34 25 28 00 	xor    %fs:0x28,%rsi
  401889:	00 00 
  40188b:	74 05                	je     401892 <scramble+0x503>
  40188d:	e8 5e f4 ff ff       	callq  400cf0 <__stack_chk_fail@plt>
  401892:	48 83 c4 38          	add    $0x38,%rsp
  401896:	c3                   	retq   

0000000000401897 <getbuf>:
  401897:	48 83 ec 38          	sub    $0x38,%rsp
  40189b:	48 89 e7             	mov    %rsp,%rdi
  40189e:	e8 7e 02 00 00       	callq  401b21 <Gets>
  4018a3:	b8 01 00 00 00       	mov    $0x1,%eax
  4018a8:	48 83 c4 38          	add    $0x38,%rsp
  4018ac:	c3                   	retq   

00000000004018ad <touch1>:
  4018ad:	48 83 ec 08          	sub    $0x8,%rsp
  4018b1:	c7 05 61 3c 20 00 01 	movl   $0x1,0x203c61(%rip)        # 60551c <vlevel>
  4018b8:	00 00 00 
  4018bb:	bf 79 32 40 00       	mov    $0x403279,%edi
  4018c0:	e8 0b f4 ff ff       	callq  400cd0 <puts@plt>
  4018c5:	bf 01 00 00 00       	mov    $0x1,%edi
  4018ca:	e8 97 04 00 00       	callq  401d66 <validate>
  4018cf:	bf 00 00 00 00       	mov    $0x0,%edi
  4018d4:	e8 77 f5 ff ff       	callq  400e50 <exit@plt>

00000000004018d9 <touch2>:
  4018d9:	48 83 ec 08          	sub    $0x8,%rsp
  4018dd:	89 fa                	mov    %edi,%edx
  4018df:	c7 05 33 3c 20 00 02 	movl   $0x2,0x203c33(%rip)        # 60551c <vlevel>
  4018e6:	00 00 00 
  4018e9:	39 3d 35 3c 20 00    	cmp    %edi,0x203c35(%rip)        # 605524 <cookie>
  4018ef:	75 20                	jne    401911 <touch2+0x38>
  4018f1:	be a0 32 40 00       	mov    $0x4032a0,%esi
  4018f6:	bf 01 00 00 00       	mov    $0x1,%edi
  4018fb:	b8 00 00 00 00       	mov    $0x0,%eax
  401900:	e8 fb f4 ff ff       	callq  400e00 <__printf_chk@plt>
  401905:	bf 02 00 00 00       	mov    $0x2,%edi
  40190a:	e8 57 04 00 00       	callq  401d66 <validate>
  40190f:	eb 1e                	jmp    40192f <touch2+0x56>
  401911:	be c8 32 40 00       	mov    $0x4032c8,%esi
  401916:	bf 01 00 00 00       	mov    $0x1,%edi
  40191b:	b8 00 00 00 00       	mov    $0x0,%eax
  401920:	e8 db f4 ff ff       	callq  400e00 <__printf_chk@plt>
  401925:	bf 02 00 00 00       	mov    $0x2,%edi
  40192a:	e8 f9 04 00 00       	callq  401e28 <fail>
  40192f:	bf 00 00 00 00       	mov    $0x0,%edi
  401934:	e8 17 f5 ff ff       	callq  400e50 <exit@plt>

0000000000401939 <hexmatch>:
  401939:	41 54                	push   %r12
  40193b:	55                   	push   %rbp
  40193c:	53                   	push   %rbx
  40193d:	48 83 c4 80          	add    $0xffffffffffffff80,%rsp
  401941:	89 fd                	mov    %edi,%ebp
  401943:	48 89 f3             	mov    %rsi,%rbx
  401946:	64 48 8b 04 25 28 00 	mov    %fs:0x28,%rax
  40194d:	00 00 
  40194f:	48 89 44 24 78       	mov    %rax,0x78(%rsp)
  401954:	31 c0                	xor    %eax,%eax
  401956:	e8 65 f4 ff ff       	callq  400dc0 <random@plt>
  40195b:	48 89 c1             	mov    %rax,%rcx
  40195e:	48 ba 0b d7 a3 70 3d 	movabs $0xa3d70a3d70a3d70b,%rdx
  401965:	0a d7 a3 
  401968:	48 f7 ea             	imul   %rdx
  40196b:	48 01 ca             	add    %rcx,%rdx
  40196e:	48 c1 fa 06          	sar    $0x6,%rdx
  401972:	48 89 c8             	mov    %rcx,%rax
  401975:	48 c1 f8 3f          	sar    $0x3f,%rax
  401979:	48 29 c2             	sub    %rax,%rdx
  40197c:	48 8d 04 92          	lea    (%rdx,%rdx,4),%rax
  401980:	48 8d 14 80          	lea    (%rax,%rax,4),%rdx
  401984:	48 8d 04 95 00 00 00 	lea    0x0(,%rdx,4),%rax
  40198b:	00 
  40198c:	48 29 c1             	sub    %rax,%rcx
  40198f:	4c 8d 24 0c          	lea    (%rsp,%rcx,1),%r12
  401993:	41 89 e8             	mov    %ebp,%r8d
  401996:	b9 96 32 40 00       	mov    $0x403296,%ecx
  40199b:	48 c7 c2 ff ff ff ff 	mov    $0xffffffffffffffff,%rdx
  4019a2:	be 01 00 00 00       	mov    $0x1,%esi
  4019a7:	4c 89 e7             	mov    %r12,%rdi
  4019aa:	b8 00 00 00 00       	mov    $0x0,%eax
  4019af:	e8 cc f4 ff ff       	callq  400e80 <__sprintf_chk@plt>
  4019b4:	ba 09 00 00 00       	mov    $0x9,%edx
  4019b9:	4c 89 e6             	mov    %r12,%rsi
  4019bc:	48 89 df             	mov    %rbx,%rdi
  4019bf:	e8 ec f2 ff ff       	callq  400cb0 <strncmp@plt>
  4019c4:	85 c0                	test   %eax,%eax
  4019c6:	0f 94 c0             	sete   %al
  4019c9:	48 8b 5c 24 78       	mov    0x78(%rsp),%rbx
  4019ce:	64 48 33 1c 25 28 00 	xor    %fs:0x28,%rbx
  4019d5:	00 00 
  4019d7:	74 05                	je     4019de <hexmatch+0xa5>
  4019d9:	e8 12 f3 ff ff       	callq  400cf0 <__stack_chk_fail@plt>
  4019de:	0f b6 c0             	movzbl %al,%eax
  4019e1:	48 83 ec 80          	sub    $0xffffffffffffff80,%rsp
  4019e5:	5b                   	pop    %rbx
  4019e6:	5d                   	pop    %rbp
  4019e7:	41 5c                	pop    %r12
  4019e9:	c3                   	retq   

00000000004019ea <touch3>:
  4019ea:	53                   	push   %rbx
  4019eb:	48 89 fb             	mov    %rdi,%rbx
  4019ee:	c7 05 24 3b 20 00 03 	movl   $0x3,0x203b24(%rip)        # 60551c <vlevel>
  4019f5:	00 00 00 
  4019f8:	48 89 fe             	mov    %rdi,%rsi
  4019fb:	8b 3d 23 3b 20 00    	mov    0x203b23(%rip),%edi        # 605524 <cookie>
  401a01:	e8 33 ff ff ff       	callq  401939 <hexmatch>
  401a06:	85 c0                	test   %eax,%eax
  401a08:	74 23                	je     401a2d <touch3+0x43>
  401a0a:	48 89 da             	mov    %rbx,%rdx
  401a0d:	be f0 32 40 00       	mov    $0x4032f0,%esi
  401a12:	bf 01 00 00 00       	mov    $0x1,%edi
  401a17:	b8 00 00 00 00       	mov    $0x0,%eax
  401a1c:	e8 df f3 ff ff       	callq  400e00 <__printf_chk@plt>
  401a21:	bf 03 00 00 00       	mov    $0x3,%edi
  401a26:	e8 3b 03 00 00       	callq  401d66 <validate>
  401a2b:	eb 21                	jmp    401a4e <touch3+0x64>
  401a2d:	48 89 da             	mov    %rbx,%rdx
  401a30:	be 18 33 40 00       	mov    $0x403318,%esi
  401a35:	bf 01 00 00 00       	mov    $0x1,%edi
  401a3a:	b8 00 00 00 00       	mov    $0x0,%eax
  401a3f:	e8 bc f3 ff ff       	callq  400e00 <__printf_chk@plt>
  401a44:	bf 03 00 00 00       	mov    $0x3,%edi
  401a49:	e8 da 03 00 00       	callq  401e28 <fail>
  401a4e:	bf 00 00 00 00       	mov    $0x0,%edi
  401a53:	e8 f8 f3 ff ff       	callq  400e50 <exit@plt>

0000000000401a58 <test>:
  401a58:	48 83 ec 08          	sub    $0x8,%rsp
  401a5c:	b8 00 00 00 00       	mov    $0x0,%eax
  401a61:	e8 31 fe ff ff       	callq  401897 <getbuf>
  401a66:	89 c2                	mov    %eax,%edx
  401a68:	be 40 33 40 00       	mov    $0x403340,%esi
  401a6d:	bf 01 00 00 00       	mov    $0x1,%edi
  401a72:	b8 00 00 00 00       	mov    $0x0,%eax
  401a77:	e8 84 f3 ff ff       	callq  400e00 <__printf_chk@plt>
  401a7c:	48 83 c4 08          	add    $0x8,%rsp
  401a80:	c3                   	retq   

0000000000401a81 <save_char>:
  401a81:	8b 05 bd 46 20 00    	mov    0x2046bd(%rip),%eax        # 606144 <gets_cnt>
  401a87:	3d ff 03 00 00       	cmp    $0x3ff,%eax
  401a8c:	7f 49                	jg     401ad7 <save_char+0x56>
  401a8e:	8d 14 40             	lea    (%rax,%rax,2),%edx
  401a91:	89 f9                	mov    %edi,%ecx
  401a93:	c0 e9 04             	shr    $0x4,%cl
  401a96:	83 e1 0f             	and    $0xf,%ecx
  401a99:	0f b6 b1 60 36 40 00 	movzbl 0x403660(%rcx),%esi
  401aa0:	48 63 ca             	movslq %edx,%rcx
  401aa3:	40 88 b1 40 55 60 00 	mov    %sil,0x605540(%rcx)
  401aaa:	8d 4a 01             	lea    0x1(%rdx),%ecx
  401aad:	83 e7 0f             	and    $0xf,%edi
  401ab0:	0f b6 b7 60 36 40 00 	movzbl 0x403660(%rdi),%esi
  401ab7:	48 63 c9             	movslq %ecx,%rcx
  401aba:	40 88 b1 40 55 60 00 	mov    %sil,0x605540(%rcx)
  401ac1:	83 c2 02             	add    $0x2,%edx
  401ac4:	48 63 d2             	movslq %edx,%rdx
  401ac7:	c6 82 40 55 60 00 20 	movb   $0x20,0x605540(%rdx)
  401ace:	83 c0 01             	add    $0x1,%eax
  401ad1:	89 05 6d 46 20 00    	mov    %eax,0x20466d(%rip)        # 606144 <gets_cnt>
  401ad7:	f3 c3                	repz retq 

0000000000401ad9 <save_term>:
  401ad9:	8b 05 65 46 20 00    	mov    0x204665(%rip),%eax        # 606144 <gets_cnt>
  401adf:	8d 04 40             	lea    (%rax,%rax,2),%eax
  401ae2:	48 98                	cltq   
  401ae4:	c6 80 40 55 60 00 00 	movb   $0x0,0x605540(%rax)
  401aeb:	c3                   	retq   

0000000000401aec <check_fail>:
  401aec:	48 83 ec 08          	sub    $0x8,%rsp
  401af0:	0f be 15 51 46 20 00 	movsbl 0x204651(%rip),%edx        # 606148 <target_prefix>
  401af7:	41 b8 40 55 60 00    	mov    $0x605540,%r8d
  401afd:	8b 0d 15 3a 20 00    	mov    0x203a15(%rip),%ecx        # 605518 <check_level>
  401b03:	be 63 33 40 00       	mov    $0x403363,%esi
  401b08:	bf 01 00 00 00       	mov    $0x1,%edi
  401b0d:	b8 00 00 00 00       	mov    $0x0,%eax
  401b12:	e8 e9 f2 ff ff       	callq  400e00 <__printf_chk@plt>
  401b17:	bf 01 00 00 00       	mov    $0x1,%edi
  401b1c:	e8 2f f3 ff ff       	callq  400e50 <exit@plt>

0000000000401b21 <Gets>:
  401b21:	41 54                	push   %r12
  401b23:	55                   	push   %rbp
  401b24:	53                   	push   %rbx
  401b25:	49 89 fc             	mov    %rdi,%r12
  401b28:	c7 05 12 46 20 00 00 	movl   $0x0,0x204612(%rip)        # 606144 <gets_cnt>
  401b2f:	00 00 00 
  401b32:	48 89 fb             	mov    %rdi,%rbx
  401b35:	eb 11                	jmp    401b48 <Gets+0x27>
  401b37:	48 8d 6b 01          	lea    0x1(%rbx),%rbp
  401b3b:	88 03                	mov    %al,(%rbx)
  401b3d:	0f b6 f8             	movzbl %al,%edi
  401b40:	e8 3c ff ff ff       	callq  401a81 <save_char>
  401b45:	48 89 eb             	mov    %rbp,%rbx
  401b48:	48 8b 3d c1 39 20 00 	mov    0x2039c1(%rip),%rdi        # 605510 <infile>
  401b4f:	e8 7c f2 ff ff       	callq  400dd0 <_IO_getc@plt>
  401b54:	83 f8 ff             	cmp    $0xffffffff,%eax
  401b57:	74 05                	je     401b5e <Gets+0x3d>
  401b59:	83 f8 0a             	cmp    $0xa,%eax
  401b5c:	75 d9                	jne    401b37 <Gets+0x16>
  401b5e:	c6 03 00             	movb   $0x0,(%rbx)
  401b61:	b8 00 00 00 00       	mov    $0x0,%eax
  401b66:	e8 6e ff ff ff       	callq  401ad9 <save_term>
  401b6b:	4c 89 e0             	mov    %r12,%rax
  401b6e:	5b                   	pop    %rbx
  401b6f:	5d                   	pop    %rbp
  401b70:	41 5c                	pop    %r12
  401b72:	c3                   	retq   

0000000000401b73 <notify_server>:
  401b73:	53                   	push   %rbx
  401b74:	48 81 ec 10 40 00 00 	sub    $0x4010,%rsp
  401b7b:	64 48 8b 04 25 28 00 	mov    %fs:0x28,%rax
  401b82:	00 00 
  401b84:	48 89 84 24 08 40 00 	mov    %rax,0x4008(%rsp)
  401b8b:	00 
  401b8c:	31 c0                	xor    %eax,%eax
  401b8e:	83 3d 93 39 20 00 00 	cmpl   $0x0,0x203993(%rip)        # 605528 <is_checker>
  401b95:	0f 85 aa 01 00 00    	jne    401d45 <notify_server+0x1d2>
  401b9b:	89 fb                	mov    %edi,%ebx
  401b9d:	8b 05 a1 45 20 00    	mov    0x2045a1(%rip),%eax        # 606144 <gets_cnt>
  401ba3:	83 c0 64             	add    $0x64,%eax
  401ba6:	3d 00 20 00 00       	cmp    $0x2000,%eax
  401bab:	7e 1e                	jle    401bcb <notify_server+0x58>
  401bad:	be 98 34 40 00       	mov    $0x403498,%esi
  401bb2:	bf 01 00 00 00       	mov    $0x1,%edi
  401bb7:	b8 00 00 00 00       	mov    $0x0,%eax
  401bbc:	e8 3f f2 ff ff       	callq  400e00 <__printf_chk@plt>
  401bc1:	bf 01 00 00 00       	mov    $0x1,%edi
  401bc6:	e8 85 f2 ff ff       	callq  400e50 <exit@plt>
  401bcb:	0f be 05 76 45 20 00 	movsbl 0x204576(%rip),%eax        # 606148 <target_prefix>
  401bd2:	83 3d cf 38 20 00 00 	cmpl   $0x0,0x2038cf(%rip)        # 6054a8 <notify>
  401bd9:	74 08                	je     401be3 <notify_server+0x70>
  401bdb:	8b 15 3f 39 20 00    	mov    0x20393f(%rip),%edx        # 605520 <authkey>
  401be1:	eb 05                	jmp    401be8 <notify_server+0x75>
  401be3:	ba ff ff ff ff       	mov    $0xffffffff,%edx
  401be8:	85 db                	test   %ebx,%ebx
  401bea:	74 08                	je     401bf4 <notify_server+0x81>
  401bec:	41 b9 79 33 40 00    	mov    $0x403379,%r9d
  401bf2:	eb 06                	jmp    401bfa <notify_server+0x87>
  401bf4:	41 b9 7e 33 40 00    	mov    $0x40337e,%r9d
  401bfa:	68 40 55 60 00       	pushq  $0x605540
  401bff:	56                   	push   %rsi
  401c00:	50                   	push   %rax
  401c01:	52                   	push   %rdx
  401c02:	44 8b 05 5f 35 20 00 	mov    0x20355f(%rip),%r8d        # 605168 <target_id>
  401c09:	b9 83 33 40 00       	mov    $0x403383,%ecx
  401c0e:	ba 00 20 00 00       	mov    $0x2000,%edx
  401c13:	be 01 00 00 00       	mov    $0x1,%esi
  401c18:	48 8d 7c 24 20       	lea    0x20(%rsp),%rdi
  401c1d:	b8 00 00 00 00       	mov    $0x0,%eax
  401c22:	e8 59 f2 ff ff       	callq  400e80 <__sprintf_chk@plt>
  401c27:	48 83 c4 20          	add    $0x20,%rsp
  401c2b:	83 3d 76 38 20 00 00 	cmpl   $0x0,0x203876(%rip)        # 6054a8 <notify>
  401c32:	0f 84 81 00 00 00    	je     401cb9 <notify_server+0x146>
  401c38:	85 db                	test   %ebx,%ebx
  401c3a:	74 6e                	je     401caa <notify_server+0x137>
  401c3c:	4c 8d 8c 24 00 20 00 	lea    0x2000(%rsp),%r9
  401c43:	00 
  401c44:	41 b8 00 00 00 00    	mov    $0x0,%r8d
  401c4a:	48 89 e1             	mov    %rsp,%rcx
  401c4d:	48 8b 15 1c 35 20 00 	mov    0x20351c(%rip),%rdx        # 605170 <lab>
  401c54:	48 8b 35 1d 35 20 00 	mov    0x20351d(%rip),%rsi        # 605178 <course>
  401c5b:	48 8b 3d fe 34 20 00 	mov    0x2034fe(%rip),%rdi        # 605160 <user_id>
  401c62:	e8 ef 10 00 00       	callq  402d56 <driver_post>
  401c67:	85 c0                	test   %eax,%eax
  401c69:	79 26                	jns    401c91 <notify_server+0x11e>
  401c6b:	48 8d 94 24 00 20 00 	lea    0x2000(%rsp),%rdx
  401c72:	00 
  401c73:	be 9f 33 40 00       	mov    $0x40339f,%esi
  401c78:	bf 01 00 00 00       	mov    $0x1,%edi
  401c7d:	b8 00 00 00 00       	mov    $0x0,%eax
  401c82:	e8 79 f1 ff ff       	callq  400e00 <__printf_chk@plt>
  401c87:	bf 01 00 00 00       	mov    $0x1,%edi
  401c8c:	e8 bf f1 ff ff       	callq  400e50 <exit@plt>
  401c91:	bf c8 34 40 00       	mov    $0x4034c8,%edi
  401c96:	e8 35 f0 ff ff       	callq  400cd0 <puts@plt>
  401c9b:	bf ab 33 40 00       	mov    $0x4033ab,%edi
  401ca0:	e8 2b f0 ff ff       	callq  400cd0 <puts@plt>
  401ca5:	e9 9b 00 00 00       	jmpq   401d45 <notify_server+0x1d2>
  401caa:	bf b5 33 40 00       	mov    $0x4033b5,%edi
  401caf:	e8 1c f0 ff ff       	callq  400cd0 <puts@plt>
  401cb4:	e9 8c 00 00 00       	jmpq   401d45 <notify_server+0x1d2>
  401cb9:	85 db                	test   %ebx,%ebx
  401cbb:	74 07                	je     401cc4 <notify_server+0x151>
  401cbd:	ba 79 33 40 00       	mov    $0x403379,%edx
  401cc2:	eb 05                	jmp    401cc9 <notify_server+0x156>
  401cc4:	ba 7e 33 40 00       	mov    $0x40337e,%edx
  401cc9:	be 00 35 40 00       	mov    $0x403500,%esi
  401cce:	bf 01 00 00 00       	mov    $0x1,%edi
  401cd3:	b8 00 00 00 00       	mov    $0x0,%eax
  401cd8:	e8 23 f1 ff ff       	callq  400e00 <__printf_chk@plt>
  401cdd:	48 8b 15 7c 34 20 00 	mov    0x20347c(%rip),%rdx        # 605160 <user_id>
  401ce4:	be bc 33 40 00       	mov    $0x4033bc,%esi
  401ce9:	bf 01 00 00 00       	mov    $0x1,%edi
  401cee:	b8 00 00 00 00       	mov    $0x0,%eax
  401cf3:	e8 08 f1 ff ff       	callq  400e00 <__printf_chk@plt>
  401cf8:	48 8b 15 79 34 20 00 	mov    0x203479(%rip),%rdx        # 605178 <course>
  401cff:	be c9 33 40 00       	mov    $0x4033c9,%esi
  401d04:	bf 01 00 00 00       	mov    $0x1,%edi
  401d09:	b8 00 00 00 00       	mov    $0x0,%eax
  401d0e:	e8 ed f0 ff ff       	callq  400e00 <__printf_chk@plt>
  401d13:	48 8b 15 56 34 20 00 	mov    0x203456(%rip),%rdx        # 605170 <lab>
  401d1a:	be d5 33 40 00       	mov    $0x4033d5,%esi
  401d1f:	bf 01 00 00 00       	mov    $0x1,%edi
  401d24:	b8 00 00 00 00       	mov    $0x0,%eax
  401d29:	e8 d2 f0 ff ff       	callq  400e00 <__printf_chk@plt>
  401d2e:	48 89 e2             	mov    %rsp,%rdx
  401d31:	be de 33 40 00       	mov    $0x4033de,%esi
  401d36:	bf 01 00 00 00       	mov    $0x1,%edi
  401d3b:	b8 00 00 00 00       	mov    $0x0,%eax
  401d40:	e8 bb f0 ff ff       	callq  400e00 <__printf_chk@plt>
  401d45:	48 8b 84 24 08 40 00 	mov    0x4008(%rsp),%rax
  401d4c:	00 
  401d4d:	64 48 33 04 25 28 00 	xor    %fs:0x28,%rax
  401d54:	00 00 
  401d56:	74 05                	je     401d5d <notify_server+0x1ea>
  401d58:	e8 93 ef ff ff       	callq  400cf0 <__stack_chk_fail@plt>
  401d5d:	48 81 c4 10 40 00 00 	add    $0x4010,%rsp
  401d64:	5b                   	pop    %rbx
  401d65:	c3                   	retq   

0000000000401d66 <validate>:
  401d66:	53                   	push   %rbx
  401d67:	89 fb                	mov    %edi,%ebx
  401d69:	83 3d b8 37 20 00 00 	cmpl   $0x0,0x2037b8(%rip)        # 605528 <is_checker>
  401d70:	74 6b                	je     401ddd <validate+0x77>
  401d72:	39 3d a4 37 20 00    	cmp    %edi,0x2037a4(%rip)        # 60551c <vlevel>
  401d78:	74 14                	je     401d8e <validate+0x28>
  401d7a:	bf ea 33 40 00       	mov    $0x4033ea,%edi
  401d7f:	e8 4c ef ff ff       	callq  400cd0 <puts@plt>
  401d84:	b8 00 00 00 00       	mov    $0x0,%eax
  401d89:	e8 5e fd ff ff       	callq  401aec <check_fail>
  401d8e:	8b 15 84 37 20 00    	mov    0x203784(%rip),%edx        # 605518 <check_level>
  401d94:	39 d7                	cmp    %edx,%edi
  401d96:	74 20                	je     401db8 <validate+0x52>
  401d98:	89 f9                	mov    %edi,%ecx
  401d9a:	be 28 35 40 00       	mov    $0x403528,%esi
  401d9f:	bf 01 00 00 00       	mov    $0x1,%edi
  401da4:	b8 00 00 00 00       	mov    $0x0,%eax
  401da9:	e8 52 f0 ff ff       	callq  400e00 <__printf_chk@plt>
  401dae:	b8 00 00 00 00       	mov    $0x0,%eax
  401db3:	e8 34 fd ff ff       	callq  401aec <check_fail>
  401db8:	0f be 15 89 43 20 00 	movsbl 0x204389(%rip),%edx        # 606148 <target_prefix>
  401dbf:	41 b8 40 55 60 00    	mov    $0x605540,%r8d
  401dc5:	89 f9                	mov    %edi,%ecx
  401dc7:	be 08 34 40 00       	mov    $0x403408,%esi
  401dcc:	bf 01 00 00 00       	mov    $0x1,%edi
  401dd1:	b8 00 00 00 00       	mov    $0x0,%eax
  401dd6:	e8 25 f0 ff ff       	callq  400e00 <__printf_chk@plt>
  401ddb:	eb 49                	jmp    401e26 <validate+0xc0>
  401ddd:	3b 3d 39 37 20 00    	cmp    0x203739(%rip),%edi        # 60551c <vlevel>
  401de3:	74 18                	je     401dfd <validate+0x97>
  401de5:	bf ea 33 40 00       	mov    $0x4033ea,%edi
  401dea:	e8 e1 ee ff ff       	callq  400cd0 <puts@plt>
  401def:	89 de                	mov    %ebx,%esi
  401df1:	bf 00 00 00 00       	mov    $0x0,%edi
  401df6:	e8 78 fd ff ff       	callq  401b73 <notify_server>
  401dfb:	eb 29                	jmp    401e26 <validate+0xc0>
  401dfd:	0f be 0d 44 43 20 00 	movsbl 0x204344(%rip),%ecx        # 606148 <target_prefix>
  401e04:	89 fa                	mov    %edi,%edx
  401e06:	be 50 35 40 00       	mov    $0x403550,%esi
  401e0b:	bf 01 00 00 00       	mov    $0x1,%edi
  401e10:	b8 00 00 00 00       	mov    $0x0,%eax
  401e15:	e8 e6 ef ff ff       	callq  400e00 <__printf_chk@plt>
  401e1a:	89 de                	mov    %ebx,%esi
  401e1c:	bf 01 00 00 00       	mov    $0x1,%edi
  401e21:	e8 4d fd ff ff       	callq  401b73 <notify_server>
  401e26:	5b                   	pop    %rbx
  401e27:	c3                   	retq   

0000000000401e28 <fail>:
  401e28:	48 83 ec 08          	sub    $0x8,%rsp
  401e2c:	83 3d f5 36 20 00 00 	cmpl   $0x0,0x2036f5(%rip)        # 605528 <is_checker>
  401e33:	74 0a                	je     401e3f <fail+0x17>
  401e35:	b8 00 00 00 00       	mov    $0x0,%eax
  401e3a:	e8 ad fc ff ff       	callq  401aec <check_fail>
  401e3f:	89 fe                	mov    %edi,%esi
  401e41:	bf 00 00 00 00       	mov    $0x0,%edi
  401e46:	e8 28 fd ff ff       	callq  401b73 <notify_server>
  401e4b:	48 83 c4 08          	add    $0x8,%rsp
  401e4f:	c3                   	retq   

0000000000401e50 <bushandler>:
  401e50:	48 83 ec 08          	sub    $0x8,%rsp
  401e54:	83 3d cd 36 20 00 00 	cmpl   $0x0,0x2036cd(%rip)        # 605528 <is_checker>
  401e5b:	74 14                	je     401e71 <bushandler+0x21>
  401e5d:	bf 1d 34 40 00       	mov    $0x40341d,%edi
  401e62:	e8 69 ee ff ff       	callq  400cd0 <puts@plt>
  401e67:	b8 00 00 00 00       	mov    $0x0,%eax
  401e6c:	e8 7b fc ff ff       	callq  401aec <check_fail>
  401e71:	bf 88 35 40 00       	mov    $0x403588,%edi
  401e76:	e8 55 ee ff ff       	callq  400cd0 <puts@plt>
  401e7b:	bf 27 34 40 00       	mov    $0x403427,%edi
  401e80:	e8 4b ee ff ff       	callq  400cd0 <puts@plt>
  401e85:	be 00 00 00 00       	mov    $0x0,%esi
  401e8a:	bf 00 00 00 00       	mov    $0x0,%edi
  401e8f:	e8 df fc ff ff       	callq  401b73 <notify_server>
  401e94:	bf 01 00 00 00       	mov    $0x1,%edi
  401e99:	e8 b2 ef ff ff       	callq  400e50 <exit@plt>

0000000000401e9e <seghandler>:
  401e9e:	48 83 ec 08          	sub    $0x8,%rsp
  401ea2:	83 3d 7f 36 20 00 00 	cmpl   $0x0,0x20367f(%rip)        # 605528 <is_checker>
  401ea9:	74 14                	je     401ebf <seghandler+0x21>
  401eab:	bf 3d 34 40 00       	mov    $0x40343d,%edi
  401eb0:	e8 1b ee ff ff       	callq  400cd0 <puts@plt>
  401eb5:	b8 00 00 00 00       	mov    $0x0,%eax
  401eba:	e8 2d fc ff ff       	callq  401aec <check_fail>
  401ebf:	bf a8 35 40 00       	mov    $0x4035a8,%edi
  401ec4:	e8 07 ee ff ff       	callq  400cd0 <puts@plt>
  401ec9:	bf 27 34 40 00       	mov    $0x403427,%edi
  401ece:	e8 fd ed ff ff       	callq  400cd0 <puts@plt>
  401ed3:	be 00 00 00 00       	mov    $0x0,%esi
  401ed8:	bf 00 00 00 00       	mov    $0x0,%edi
  401edd:	e8 91 fc ff ff       	callq  401b73 <notify_server>
  401ee2:	bf 01 00 00 00       	mov    $0x1,%edi
  401ee7:	e8 64 ef ff ff       	callq  400e50 <exit@plt>

0000000000401eec <illegalhandler>:
  401eec:	48 83 ec 08          	sub    $0x8,%rsp
  401ef0:	83 3d 31 36 20 00 00 	cmpl   $0x0,0x203631(%rip)        # 605528 <is_checker>
  401ef7:	74 14                	je     401f0d <illegalhandler+0x21>
  401ef9:	bf 50 34 40 00       	mov    $0x403450,%edi
  401efe:	e8 cd ed ff ff       	callq  400cd0 <puts@plt>
  401f03:	b8 00 00 00 00       	mov    $0x0,%eax
  401f08:	e8 df fb ff ff       	callq  401aec <check_fail>
  401f0d:	bf d0 35 40 00       	mov    $0x4035d0,%edi
  401f12:	e8 b9 ed ff ff       	callq  400cd0 <puts@plt>
  401f17:	bf 27 34 40 00       	mov    $0x403427,%edi
  401f1c:	e8 af ed ff ff       	callq  400cd0 <puts@plt>
  401f21:	be 00 00 00 00       	mov    $0x0,%esi
  401f26:	bf 00 00 00 00       	mov    $0x0,%edi
  401f2b:	e8 43 fc ff ff       	callq  401b73 <notify_server>
  401f30:	bf 01 00 00 00       	mov    $0x1,%edi
  401f35:	e8 16 ef ff ff       	callq  400e50 <exit@plt>

0000000000401f3a <sigalrmhandler>:
  401f3a:	48 83 ec 08          	sub    $0x8,%rsp
  401f3e:	83 3d e3 35 20 00 00 	cmpl   $0x0,0x2035e3(%rip)        # 605528 <is_checker>
  401f45:	74 14                	je     401f5b <sigalrmhandler+0x21>
  401f47:	bf 64 34 40 00       	mov    $0x403464,%edi
  401f4c:	e8 7f ed ff ff       	callq  400cd0 <puts@plt>
  401f51:	b8 00 00 00 00       	mov    $0x0,%eax
  401f56:	e8 91 fb ff ff       	callq  401aec <check_fail>
  401f5b:	ba 05 00 00 00       	mov    $0x5,%edx
  401f60:	be 00 36 40 00       	mov    $0x403600,%esi
  401f65:	bf 01 00 00 00       	mov    $0x1,%edi
  401f6a:	b8 00 00 00 00       	mov    $0x0,%eax
  401f6f:	e8 8c ee ff ff       	callq  400e00 <__printf_chk@plt>
  401f74:	be 00 00 00 00       	mov    $0x0,%esi
  401f79:	bf 00 00 00 00       	mov    $0x0,%edi
  401f7e:	e8 f0 fb ff ff       	callq  401b73 <notify_server>
  401f83:	bf 01 00 00 00       	mov    $0x1,%edi
  401f88:	e8 c3 ee ff ff       	callq  400e50 <exit@plt>

0000000000401f8d <launch>:
  401f8d:	55                   	push   %rbp
  401f8e:	48 89 e5             	mov    %rsp,%rbp
  401f91:	48 83 ec 10          	sub    $0x10,%rsp
  401f95:	48 89 fa             	mov    %rdi,%rdx
  401f98:	64 48 8b 04 25 28 00 	mov    %fs:0x28,%rax
  401f9f:	00 00 
  401fa1:	48 89 45 f8          	mov    %rax,-0x8(%rbp)
  401fa5:	31 c0                	xor    %eax,%eax
  401fa7:	48 8d 47 1e          	lea    0x1e(%rdi),%rax
  401fab:	48 83 e0 f0          	and    $0xfffffffffffffff0,%rax
  401faf:	48 29 c4             	sub    %rax,%rsp
  401fb2:	48 8d 7c 24 0f       	lea    0xf(%rsp),%rdi
  401fb7:	48 83 e7 f0          	and    $0xfffffffffffffff0,%rdi
  401fbb:	be f4 00 00 00       	mov    $0xf4,%esi
  401fc0:	e8 4b ed ff ff       	callq  400d10 <memset@plt>
  401fc5:	48 8b 05 f4 34 20 00 	mov    0x2034f4(%rip),%rax        # 6054c0 <stdin@@GLIBC_2.2.5>
  401fcc:	48 39 05 3d 35 20 00 	cmp    %rax,0x20353d(%rip)        # 605510 <infile>
  401fd3:	75 14                	jne    401fe9 <launch+0x5c>
  401fd5:	be 6c 34 40 00       	mov    $0x40346c,%esi
  401fda:	bf 01 00 00 00       	mov    $0x1,%edi
  401fdf:	b8 00 00 00 00       	mov    $0x0,%eax
  401fe4:	e8 17 ee ff ff       	callq  400e00 <__printf_chk@plt>
  401fe9:	c7 05 29 35 20 00 00 	movl   $0x0,0x203529(%rip)        # 60551c <vlevel>
  401ff0:	00 00 00 
  401ff3:	b8 00 00 00 00       	mov    $0x0,%eax
  401ff8:	e8 5b fa ff ff       	callq  401a58 <test>
  401ffd:	83 3d 24 35 20 00 00 	cmpl   $0x0,0x203524(%rip)        # 605528 <is_checker>
  402004:	74 14                	je     40201a <launch+0x8d>
  402006:	bf 79 34 40 00       	mov    $0x403479,%edi
  40200b:	e8 c0 ec ff ff       	callq  400cd0 <puts@plt>
  402010:	b8 00 00 00 00       	mov    $0x0,%eax
  402015:	e8 d2 fa ff ff       	callq  401aec <check_fail>
  40201a:	bf 84 34 40 00       	mov    $0x403484,%edi
  40201f:	e8 ac ec ff ff       	callq  400cd0 <puts@plt>
  402024:	48 8b 45 f8          	mov    -0x8(%rbp),%rax
  402028:	64 48 33 04 25 28 00 	xor    %fs:0x28,%rax
  40202f:	00 00 
  402031:	74 05                	je     402038 <launch+0xab>
  402033:	e8 b8 ec ff ff       	callq  400cf0 <__stack_chk_fail@plt>
  402038:	c9                   	leaveq 
  402039:	c3                   	retq   

000000000040203a <stable_launch>:
  40203a:	53                   	push   %rbx
  40203b:	48 89 3d c6 34 20 00 	mov    %rdi,0x2034c6(%rip)        # 605508 <global_offset>
  402042:	41 b9 00 00 00 00    	mov    $0x0,%r9d
  402048:	41 b8 00 00 00 00    	mov    $0x0,%r8d
  40204e:	b9 32 01 00 00       	mov    $0x132,%ecx
  402053:	ba 07 00 00 00       	mov    $0x7,%edx
  402058:	be 00 00 10 00       	mov    $0x100000,%esi
  40205d:	bf 00 60 58 55       	mov    $0x55586000,%edi
  402062:	e8 99 ec ff ff       	callq  400d00 <mmap@plt>
  402067:	48 89 c3             	mov    %rax,%rbx
  40206a:	48 3d 00 60 58 55    	cmp    $0x55586000,%rax
  402070:	74 37                	je     4020a9 <stable_launch+0x6f>
  402072:	be 00 00 10 00       	mov    $0x100000,%esi
  402077:	48 89 c7             	mov    %rax,%rdi
  40207a:	e8 71 ed ff ff       	callq  400df0 <munmap@plt>
  40207f:	b9 00 60 58 55       	mov    $0x55586000,%ecx
  402084:	ba 38 36 40 00       	mov    $0x403638,%edx
  402089:	be 01 00 00 00       	mov    $0x1,%esi
  40208e:	48 8b 3d 4b 34 20 00 	mov    0x20344b(%rip),%rdi        # 6054e0 <stderr@@GLIBC_2.2.5>
  402095:	b8 00 00 00 00       	mov    $0x0,%eax
  40209a:	e8 d1 ed ff ff       	callq  400e70 <__fprintf_chk@plt>
  40209f:	bf 01 00 00 00       	mov    $0x1,%edi
  4020a4:	e8 a7 ed ff ff       	callq  400e50 <exit@plt>
  4020a9:	48 8d 90 f8 ff 0f 00 	lea    0xffff8(%rax),%rdx
  4020b0:	48 89 15 99 40 20 00 	mov    %rdx,0x204099(%rip)        # 606150 <stack_top>
  4020b7:	48 89 e0             	mov    %rsp,%rax
  4020ba:	48 89 d4             	mov    %rdx,%rsp
  4020bd:	48 89 c2             	mov    %rax,%rdx
  4020c0:	48 89 15 39 34 20 00 	mov    %rdx,0x203439(%rip)        # 605500 <global_save_stack>
  4020c7:	48 8b 3d 3a 34 20 00 	mov    0x20343a(%rip),%rdi        # 605508 <global_offset>
  4020ce:	e8 ba fe ff ff       	callq  401f8d <launch>
  4020d3:	48 8b 05 26 34 20 00 	mov    0x203426(%rip),%rax        # 605500 <global_save_stack>
  4020da:	48 89 c4             	mov    %rax,%rsp
  4020dd:	be 00 00 10 00       	mov    $0x100000,%esi
  4020e2:	48 89 df             	mov    %rbx,%rdi
  4020e5:	e8 06 ed ff ff       	callq  400df0 <munmap@plt>
  4020ea:	5b                   	pop    %rbx
  4020eb:	c3                   	retq   

00000000004020ec <rio_readinitb>:
  4020ec:	89 37                	mov    %esi,(%rdi)
  4020ee:	c7 47 04 00 00 00 00 	movl   $0x0,0x4(%rdi)
  4020f5:	48 8d 47 10          	lea    0x10(%rdi),%rax
  4020f9:	48 89 47 08          	mov    %rax,0x8(%rdi)
  4020fd:	c3                   	retq   

00000000004020fe <sigalrm_handler>:
  4020fe:	48 83 ec 08          	sub    $0x8,%rsp
  402102:	b9 00 00 00 00       	mov    $0x0,%ecx
  402107:	ba 70 36 40 00       	mov    $0x403670,%edx
  40210c:	be 01 00 00 00       	mov    $0x1,%esi
  402111:	48 8b 3d c8 33 20 00 	mov    0x2033c8(%rip),%rdi        # 6054e0 <stderr@@GLIBC_2.2.5>
  402118:	b8 00 00 00 00       	mov    $0x0,%eax
  40211d:	e8 4e ed ff ff       	callq  400e70 <__fprintf_chk@plt>
  402122:	bf 01 00 00 00       	mov    $0x1,%edi
  402127:	e8 24 ed ff ff       	callq  400e50 <exit@plt>

000000000040212c <rio_writen>:
  40212c:	41 55                	push   %r13
  40212e:	41 54                	push   %r12
  402130:	55                   	push   %rbp
  402131:	53                   	push   %rbx
  402132:	48 83 ec 08          	sub    $0x8,%rsp
  402136:	41 89 fc             	mov    %edi,%r12d
  402139:	48 89 f5             	mov    %rsi,%rbp
  40213c:	49 89 d5             	mov    %rdx,%r13
  40213f:	48 89 d3             	mov    %rdx,%rbx
  402142:	eb 28                	jmp    40216c <rio_writen+0x40>
  402144:	48 89 da             	mov    %rbx,%rdx
  402147:	48 89 ee             	mov    %rbp,%rsi
  40214a:	44 89 e7             	mov    %r12d,%edi
  40214d:	e8 8e eb ff ff       	callq  400ce0 <write@plt>
  402152:	48 85 c0             	test   %rax,%rax
  402155:	7f 0f                	jg     402166 <rio_writen+0x3a>
  402157:	e8 34 eb ff ff       	callq  400c90 <__errno_location@plt>
  40215c:	83 38 04             	cmpl   $0x4,(%rax)
  40215f:	75 15                	jne    402176 <rio_writen+0x4a>
  402161:	b8 00 00 00 00       	mov    $0x0,%eax
  402166:	48 29 c3             	sub    %rax,%rbx
  402169:	48 01 c5             	add    %rax,%rbp
  40216c:	48 85 db             	test   %rbx,%rbx
  40216f:	75 d3                	jne    402144 <rio_writen+0x18>
  402171:	4c 89 e8             	mov    %r13,%rax
  402174:	eb 07                	jmp    40217d <rio_writen+0x51>
  402176:	48 c7 c0 ff ff ff ff 	mov    $0xffffffffffffffff,%rax
  40217d:	48 83 c4 08          	add    $0x8,%rsp
  402181:	5b                   	pop    %rbx
  402182:	5d                   	pop    %rbp
  402183:	41 5c                	pop    %r12
  402185:	41 5d                	pop    %r13
  402187:	c3                   	retq   

0000000000402188 <rio_read>:
  402188:	41 55                	push   %r13
  40218a:	41 54                	push   %r12
  40218c:	55                   	push   %rbp
  40218d:	53                   	push   %rbx
  40218e:	48 83 ec 08          	sub    $0x8,%rsp
  402192:	48 89 fb             	mov    %rdi,%rbx
  402195:	49 89 f5             	mov    %rsi,%r13
  402198:	49 89 d4             	mov    %rdx,%r12
  40219b:	eb 2e                	jmp    4021cb <rio_read+0x43>
  40219d:	48 8d 6b 10          	lea    0x10(%rbx),%rbp
  4021a1:	8b 3b                	mov    (%rbx),%edi
  4021a3:	ba 00 20 00 00       	mov    $0x2000,%edx
  4021a8:	48 89 ee             	mov    %rbp,%rsi
  4021ab:	e8 90 eb ff ff       	callq  400d40 <read@plt>
  4021b0:	89 43 04             	mov    %eax,0x4(%rbx)
  4021b3:	85 c0                	test   %eax,%eax
  4021b5:	79 0c                	jns    4021c3 <rio_read+0x3b>
  4021b7:	e8 d4 ea ff ff       	callq  400c90 <__errno_location@plt>
  4021bc:	83 38 04             	cmpl   $0x4,(%rax)
  4021bf:	74 0a                	je     4021cb <rio_read+0x43>
  4021c1:	eb 37                	jmp    4021fa <rio_read+0x72>
  4021c3:	85 c0                	test   %eax,%eax
  4021c5:	74 3c                	je     402203 <rio_read+0x7b>
  4021c7:	48 89 6b 08          	mov    %rbp,0x8(%rbx)
  4021cb:	8b 6b 04             	mov    0x4(%rbx),%ebp
  4021ce:	85 ed                	test   %ebp,%ebp
  4021d0:	7e cb                	jle    40219d <rio_read+0x15>
  4021d2:	89 e8                	mov    %ebp,%eax
  4021d4:	49 39 c4             	cmp    %rax,%r12
  4021d7:	77 03                	ja     4021dc <rio_read+0x54>
  4021d9:	44 89 e5             	mov    %r12d,%ebp
  4021dc:	4c 63 e5             	movslq %ebp,%r12
  4021df:	48 8b 73 08          	mov    0x8(%rbx),%rsi
  4021e3:	4c 89 e2             	mov    %r12,%rdx
  4021e6:	4c 89 ef             	mov    %r13,%rdi
  4021e9:	e8 b2 eb ff ff       	callq  400da0 <memcpy@plt>
  4021ee:	4c 01 63 08          	add    %r12,0x8(%rbx)
  4021f2:	29 6b 04             	sub    %ebp,0x4(%rbx)
  4021f5:	4c 89 e0             	mov    %r12,%rax
  4021f8:	eb 0e                	jmp    402208 <rio_read+0x80>
  4021fa:	48 c7 c0 ff ff ff ff 	mov    $0xffffffffffffffff,%rax
  402201:	eb 05                	jmp    402208 <rio_read+0x80>
  402203:	b8 00 00 00 00       	mov    $0x0,%eax
  402208:	48 83 c4 08          	add    $0x8,%rsp
  40220c:	5b                   	pop    %rbx
  40220d:	5d                   	pop    %rbp
  40220e:	41 5c                	pop    %r12
  402210:	41 5d                	pop    %r13
  402212:	c3                   	retq   

0000000000402213 <rio_readlineb>:
  402213:	41 55                	push   %r13
  402215:	41 54                	push   %r12
  402217:	55                   	push   %rbp
  402218:	53                   	push   %rbx
  402219:	48 83 ec 18          	sub    $0x18,%rsp
  40221d:	49 89 fd             	mov    %rdi,%r13
  402220:	48 89 f5             	mov    %rsi,%rbp
  402223:	49 89 d4             	mov    %rdx,%r12
  402226:	64 48 8b 04 25 28 00 	mov    %fs:0x28,%rax
  40222d:	00 00 
  40222f:	48 89 44 24 08       	mov    %rax,0x8(%rsp)
  402234:	31 c0                	xor    %eax,%eax
  402236:	bb 01 00 00 00       	mov    $0x1,%ebx
  40223b:	eb 3f                	jmp    40227c <rio_readlineb+0x69>
  40223d:	ba 01 00 00 00       	mov    $0x1,%edx
  402242:	48 8d 74 24 07       	lea    0x7(%rsp),%rsi
  402247:	4c 89 ef             	mov    %r13,%rdi
  40224a:	e8 39 ff ff ff       	callq  402188 <rio_read>
  40224f:	83 f8 01             	cmp    $0x1,%eax
  402252:	75 15                	jne    402269 <rio_readlineb+0x56>
  402254:	48 8d 45 01          	lea    0x1(%rbp),%rax
  402258:	0f b6 54 24 07       	movzbl 0x7(%rsp),%edx
  40225d:	88 55 00             	mov    %dl,0x0(%rbp)
  402260:	80 7c 24 07 0a       	cmpb   $0xa,0x7(%rsp)
  402265:	75 0e                	jne    402275 <rio_readlineb+0x62>
  402267:	eb 1a                	jmp    402283 <rio_readlineb+0x70>
  402269:	85 c0                	test   %eax,%eax
  40226b:	75 22                	jne    40228f <rio_readlineb+0x7c>
  40226d:	48 83 fb 01          	cmp    $0x1,%rbx
  402271:	75 13                	jne    402286 <rio_readlineb+0x73>
  402273:	eb 23                	jmp    402298 <rio_readlineb+0x85>
  402275:	48 83 c3 01          	add    $0x1,%rbx
  402279:	48 89 c5             	mov    %rax,%rbp
  40227c:	4c 39 e3             	cmp    %r12,%rbx
  40227f:	72 bc                	jb     40223d <rio_readlineb+0x2a>
  402281:	eb 03                	jmp    402286 <rio_readlineb+0x73>
  402283:	48 89 c5             	mov    %rax,%rbp
  402286:	c6 45 00 00          	movb   $0x0,0x0(%rbp)
  40228a:	48 89 d8             	mov    %rbx,%rax
  40228d:	eb 0e                	jmp    40229d <rio_readlineb+0x8a>
  40228f:	48 c7 c0 ff ff ff ff 	mov    $0xffffffffffffffff,%rax
  402296:	eb 05                	jmp    40229d <rio_readlineb+0x8a>
  402298:	b8 00 00 00 00       	mov    $0x0,%eax
  40229d:	48 8b 4c 24 08       	mov    0x8(%rsp),%rcx
  4022a2:	64 48 33 0c 25 28 00 	xor    %fs:0x28,%rcx
  4022a9:	00 00 
  4022ab:	74 05                	je     4022b2 <rio_readlineb+0x9f>
  4022ad:	e8 3e ea ff ff       	callq  400cf0 <__stack_chk_fail@plt>
  4022b2:	48 83 c4 18          	add    $0x18,%rsp
  4022b6:	5b                   	pop    %rbx
  4022b7:	5d                   	pop    %rbp
  4022b8:	41 5c                	pop    %r12
  4022ba:	41 5d                	pop    %r13
  4022bc:	c3                   	retq   

00000000004022bd <urlencode>:
  4022bd:	41 54                	push   %r12
  4022bf:	55                   	push   %rbp
  4022c0:	53                   	push   %rbx
  4022c1:	48 83 ec 10          	sub    $0x10,%rsp
  4022c5:	48 89 fb             	mov    %rdi,%rbx
  4022c8:	48 89 f5             	mov    %rsi,%rbp
  4022cb:	64 48 8b 04 25 28 00 	mov    %fs:0x28,%rax
  4022d2:	00 00 
  4022d4:	48 89 44 24 08       	mov    %rax,0x8(%rsp)
  4022d9:	31 c0                	xor    %eax,%eax
  4022db:	48 c7 c1 ff ff ff ff 	mov    $0xffffffffffffffff,%rcx
  4022e2:	f2 ae                	repnz scas %es:(%rdi),%al
  4022e4:	48 f7 d1             	not    %rcx
  4022e7:	8d 41 ff             	lea    -0x1(%rcx),%eax
  4022ea:	e9 aa 00 00 00       	jmpq   402399 <urlencode+0xdc>
  4022ef:	44 0f b6 03          	movzbl (%rbx),%r8d
  4022f3:	41 80 f8 2a          	cmp    $0x2a,%r8b
  4022f7:	0f 94 c2             	sete   %dl
  4022fa:	41 80 f8 2d          	cmp    $0x2d,%r8b
  4022fe:	0f 94 c0             	sete   %al
  402301:	08 c2                	or     %al,%dl
  402303:	75 24                	jne    402329 <urlencode+0x6c>
  402305:	41 80 f8 2e          	cmp    $0x2e,%r8b
  402309:	74 1e                	je     402329 <urlencode+0x6c>
  40230b:	41 80 f8 5f          	cmp    $0x5f,%r8b
  40230f:	74 18                	je     402329 <urlencode+0x6c>
  402311:	41 8d 40 d0          	lea    -0x30(%r8),%eax
  402315:	3c 09                	cmp    $0x9,%al
  402317:	76 10                	jbe    402329 <urlencode+0x6c>
  402319:	41 8d 40 bf          	lea    -0x41(%r8),%eax
  40231d:	3c 19                	cmp    $0x19,%al
  40231f:	76 08                	jbe    402329 <urlencode+0x6c>
  402321:	41 8d 40 9f          	lea    -0x61(%r8),%eax
  402325:	3c 19                	cmp    $0x19,%al
  402327:	77 0a                	ja     402333 <urlencode+0x76>
  402329:	44 88 45 00          	mov    %r8b,0x0(%rbp)
  40232d:	48 8d 6d 01          	lea    0x1(%rbp),%rbp
  402331:	eb 5f                	jmp    402392 <urlencode+0xd5>
  402333:	41 80 f8 20          	cmp    $0x20,%r8b
  402337:	75 0a                	jne    402343 <urlencode+0x86>
  402339:	c6 45 00 2b          	movb   $0x2b,0x0(%rbp)
  40233d:	48 8d 6d 01          	lea    0x1(%rbp),%rbp
  402341:	eb 4f                	jmp    402392 <urlencode+0xd5>
  402343:	41 8d 40 e0          	lea    -0x20(%r8),%eax
  402347:	3c 5f                	cmp    $0x5f,%al
  402349:	0f 96 c2             	setbe  %dl
  40234c:	41 80 f8 09          	cmp    $0x9,%r8b
  402350:	0f 94 c0             	sete   %al
  402353:	08 c2                	or     %al,%dl
  402355:	74 50                	je     4023a7 <urlencode+0xea>
  402357:	45 0f b6 c0          	movzbl %r8b,%r8d
  40235b:	b9 08 37 40 00       	mov    $0x403708,%ecx
  402360:	ba 08 00 00 00       	mov    $0x8,%edx
  402365:	be 01 00 00 00       	mov    $0x1,%esi
  40236a:	48 89 e7             	mov    %rsp,%rdi
  40236d:	b8 00 00 00 00       	mov    $0x0,%eax
  402372:	e8 09 eb ff ff       	callq  400e80 <__sprintf_chk@plt>
  402377:	0f b6 04 24          	movzbl (%rsp),%eax
  40237b:	88 45 00             	mov    %al,0x0(%rbp)
  40237e:	0f b6 44 24 01       	movzbl 0x1(%rsp),%eax
  402383:	88 45 01             	mov    %al,0x1(%rbp)
  402386:	0f b6 44 24 02       	movzbl 0x2(%rsp),%eax
  40238b:	88 45 02             	mov    %al,0x2(%rbp)
  40238e:	48 8d 6d 03          	lea    0x3(%rbp),%rbp
  402392:	48 83 c3 01          	add    $0x1,%rbx
  402396:	44 89 e0             	mov    %r12d,%eax
  402399:	44 8d 60 ff          	lea    -0x1(%rax),%r12d
  40239d:	85 c0                	test   %eax,%eax
  40239f:	0f 85 4a ff ff ff    	jne    4022ef <urlencode+0x32>
  4023a5:	eb 05                	jmp    4023ac <urlencode+0xef>
  4023a7:	b8 ff ff ff ff       	mov    $0xffffffff,%eax
  4023ac:	48 8b 74 24 08       	mov    0x8(%rsp),%rsi
  4023b1:	64 48 33 34 25 28 00 	xor    %fs:0x28,%rsi
  4023b8:	00 00 
  4023ba:	74 05                	je     4023c1 <urlencode+0x104>
  4023bc:	e8 2f e9 ff ff       	callq  400cf0 <__stack_chk_fail@plt>
  4023c1:	48 83 c4 10          	add    $0x10,%rsp
  4023c5:	5b                   	pop    %rbx
  4023c6:	5d                   	pop    %rbp
  4023c7:	41 5c                	pop    %r12
  4023c9:	c3                   	retq   

00000000004023ca <submitr>:
  4023ca:	41 57                	push   %r15
  4023cc:	41 56                	push   %r14
  4023ce:	41 55                	push   %r13
  4023d0:	41 54                	push   %r12
  4023d2:	55                   	push   %rbp
  4023d3:	53                   	push   %rbx
  4023d4:	48 81 ec 58 a0 00 00 	sub    $0xa058,%rsp
  4023db:	49 89 fc             	mov    %rdi,%r12
  4023de:	89 74 24 04          	mov    %esi,0x4(%rsp)
  4023e2:	49 89 d7             	mov    %rdx,%r15
  4023e5:	49 89 ce             	mov    %rcx,%r14
  4023e8:	4c 89 44 24 08       	mov    %r8,0x8(%rsp)
  4023ed:	4d 89 cd             	mov    %r9,%r13
  4023f0:	48 8b 9c 24 90 a0 00 	mov    0xa090(%rsp),%rbx
  4023f7:	00 
  4023f8:	64 48 8b 04 25 28 00 	mov    %fs:0x28,%rax
  4023ff:	00 00 
  402401:	48 89 84 24 48 a0 00 	mov    %rax,0xa048(%rsp)
  402408:	00 
  402409:	31 c0                	xor    %eax,%eax
  40240b:	c7 44 24 1c 00 00 00 	movl   $0x0,0x1c(%rsp)
  402412:	00 
  402413:	ba 00 00 00 00       	mov    $0x0,%edx
  402418:	be 01 00 00 00       	mov    $0x1,%esi
  40241d:	bf 02 00 00 00       	mov    $0x2,%edi
  402422:	e8 69 ea ff ff       	callq  400e90 <socket@plt>
  402427:	85 c0                	test   %eax,%eax
  402429:	79 4e                	jns    402479 <submitr+0xaf>
  40242b:	48 b8 45 72 72 6f 72 	movabs $0x43203a726f727245,%rax
  402432:	3a 20 43 
  402435:	48 89 03             	mov    %rax,(%rbx)
  402438:	48 b8 6c 69 65 6e 74 	movabs $0x6e7520746e65696c,%rax
  40243f:	20 75 6e 
  402442:	48 89 43 08          	mov    %rax,0x8(%rbx)
  402446:	48 b8 61 62 6c 65 20 	movabs $0x206f7420656c6261,%rax
  40244d:	74 6f 20 
  402450:	48 89 43 10          	mov    %rax,0x10(%rbx)
  402454:	48 b8 63 72 65 61 74 	movabs $0x7320657461657263,%rax
  40245b:	65 20 73 
  40245e:	48 89 43 18          	mov    %rax,0x18(%rbx)
  402462:	c7 43 20 6f 63 6b 65 	movl   $0x656b636f,0x20(%rbx)
  402469:	66 c7 43 24 74 00    	movw   $0x74,0x24(%rbx)
  40246f:	b8 ff ff ff ff       	mov    $0xffffffff,%eax
  402474:	e9 97 06 00 00       	jmpq   402b10 <submitr+0x746>
  402479:	89 c5                	mov    %eax,%ebp
  40247b:	4c 89 e7             	mov    %r12,%rdi
  40247e:	e8 ed e8 ff ff       	callq  400d70 <gethostbyname@plt>
  402483:	48 85 c0             	test   %rax,%rax
  402486:	75 67                	jne    4024ef <submitr+0x125>
  402488:	48 b8 45 72 72 6f 72 	movabs $0x44203a726f727245,%rax
  40248f:	3a 20 44 
  402492:	48 89 03             	mov    %rax,(%rbx)
  402495:	48 b8 4e 53 20 69 73 	movabs $0x6e7520736920534e,%rax
  40249c:	20 75 6e 
  40249f:	48 89 43 08          	mov    %rax,0x8(%rbx)
  4024a3:	48 b8 61 62 6c 65 20 	movabs $0x206f7420656c6261,%rax
  4024aa:	74 6f 20 
  4024ad:	48 89 43 10          	mov    %rax,0x10(%rbx)
  4024b1:	48 b8 72 65 73 6f 6c 	movabs $0x2065766c6f736572,%rax
  4024b8:	76 65 20 
  4024bb:	48 89 43 18          	mov    %rax,0x18(%rbx)
  4024bf:	48 b8 73 65 72 76 65 	movabs $0x6120726576726573,%rax
  4024c6:	72 20 61 
  4024c9:	48 89 43 20          	mov    %rax,0x20(%rbx)
  4024cd:	c7 43 28 64 64 72 65 	movl   $0x65726464,0x28(%rbx)
  4024d4:	66 c7 43 2c 73 73    	movw   $0x7373,0x2c(%rbx)
  4024da:	c6 43 2e 00          	movb   $0x0,0x2e(%rbx)
  4024de:	89 ef                	mov    %ebp,%edi
  4024e0:	e8 4b e8 ff ff       	callq  400d30 <close@plt>
  4024e5:	b8 ff ff ff ff       	mov    $0xffffffff,%eax
  4024ea:	e9 21 06 00 00       	jmpq   402b10 <submitr+0x746>
  4024ef:	48 c7 44 24 20 00 00 	movq   $0x0,0x20(%rsp)
  4024f6:	00 00 
  4024f8:	48 c7 44 24 28 00 00 	movq   $0x0,0x28(%rsp)
  4024ff:	00 00 
  402501:	66 c7 44 24 20 02 00 	movw   $0x2,0x20(%rsp)
  402508:	48 63 50 14          	movslq 0x14(%rax),%rdx
  40250c:	48 8b 40 18          	mov    0x18(%rax),%rax
  402510:	48 8b 30             	mov    (%rax),%rsi
  402513:	48 8d 7c 24 24       	lea    0x24(%rsp),%rdi
  402518:	b9 0c 00 00 00       	mov    $0xc,%ecx
  40251d:	e8 5e e8 ff ff       	callq  400d80 <__memmove_chk@plt>
  402522:	0f b7 44 24 04       	movzwl 0x4(%rsp),%eax
  402527:	66 c1 c8 08          	ror    $0x8,%ax
  40252b:	66 89 44 24 22       	mov    %ax,0x22(%rsp)
  402530:	ba 10 00 00 00       	mov    $0x10,%edx
  402535:	48 8d 74 24 20       	lea    0x20(%rsp),%rsi
  40253a:	89 ef                	mov    %ebp,%edi
  40253c:	e8 1f e9 ff ff       	callq  400e60 <connect@plt>
  402541:	85 c0                	test   %eax,%eax
  402543:	79 59                	jns    40259e <submitr+0x1d4>
  402545:	48 b8 45 72 72 6f 72 	movabs $0x55203a726f727245,%rax
  40254c:	3a 20 55 
  40254f:	48 89 03             	mov    %rax,(%rbx)
  402552:	48 b8 6e 61 62 6c 65 	movabs $0x6f7420656c62616e,%rax
  402559:	20 74 6f 
  40255c:	48 89 43 08          	mov    %rax,0x8(%rbx)
  402560:	48 b8 20 63 6f 6e 6e 	movabs $0x7463656e6e6f6320,%rax
  402567:	65 63 74 
  40256a:	48 89 43 10          	mov    %rax,0x10(%rbx)
  40256e:	48 b8 20 74 6f 20 74 	movabs $0x20656874206f7420,%rax
  402575:	68 65 20 
  402578:	48 89 43 18          	mov    %rax,0x18(%rbx)
  40257c:	c7 43 20 73 65 72 76 	movl   $0x76726573,0x20(%rbx)
  402583:	66 c7 43 24 65 72    	movw   $0x7265,0x24(%rbx)
  402589:	c6 43 26 00          	movb   $0x0,0x26(%rbx)
  40258d:	89 ef                	mov    %ebp,%edi
  40258f:	e8 9c e7 ff ff       	callq  400d30 <close@plt>
  402594:	b8 ff ff ff ff       	mov    $0xffffffff,%eax
  402599:	e9 72 05 00 00       	jmpq   402b10 <submitr+0x746>
  40259e:	48 c7 c6 ff ff ff ff 	mov    $0xffffffffffffffff,%rsi
  4025a5:	b8 00 00 00 00       	mov    $0x0,%eax
  4025aa:	48 89 f1             	mov    %rsi,%rcx
  4025ad:	4c 89 ef             	mov    %r13,%rdi
  4025b0:	f2 ae                	repnz scas %es:(%rdi),%al
  4025b2:	48 f7 d1             	not    %rcx
  4025b5:	48 89 ca             	mov    %rcx,%rdx
  4025b8:	48 89 f1             	mov    %rsi,%rcx
  4025bb:	4c 89 ff             	mov    %r15,%rdi
  4025be:	f2 ae                	repnz scas %es:(%rdi),%al
  4025c0:	48 f7 d1             	not    %rcx
  4025c3:	49 89 c8             	mov    %rcx,%r8
  4025c6:	48 89 f1             	mov    %rsi,%rcx
  4025c9:	4c 89 f7             	mov    %r14,%rdi
  4025cc:	f2 ae                	repnz scas %es:(%rdi),%al
  4025ce:	48 f7 d1             	not    %rcx
  4025d1:	4d 8d 44 08 fe       	lea    -0x2(%r8,%rcx,1),%r8
  4025d6:	48 89 f1             	mov    %rsi,%rcx
  4025d9:	48 8b 7c 24 08       	mov    0x8(%rsp),%rdi
  4025de:	f2 ae                	repnz scas %es:(%rdi),%al
  4025e0:	48 89 c8             	mov    %rcx,%rax
  4025e3:	48 f7 d0             	not    %rax
  4025e6:	49 8d 4c 00 ff       	lea    -0x1(%r8,%rax,1),%rcx
  4025eb:	48 8d 44 52 fd       	lea    -0x3(%rdx,%rdx,2),%rax
  4025f0:	48 8d 84 01 80 00 00 	lea    0x80(%rcx,%rax,1),%rax
  4025f7:	00 
  4025f8:	48 3d 00 20 00 00    	cmp    $0x2000,%rax
  4025fe:	76 72                	jbe    402672 <submitr+0x2a8>
  402600:	48 b8 45 72 72 6f 72 	movabs $0x52203a726f727245,%rax
  402607:	3a 20 52 
  40260a:	48 89 03             	mov    %rax,(%rbx)
  40260d:	48 b8 65 73 75 6c 74 	movabs $0x747320746c757365,%rax
  402614:	20 73 74 
  402617:	48 89 43 08          	mov    %rax,0x8(%rbx)
  40261b:	48 b8 72 69 6e 67 20 	movabs $0x6f6f7420676e6972,%rax
  402622:	74 6f 6f 
  402625:	48 89 43 10          	mov    %rax,0x10(%rbx)
  402629:	48 b8 20 6c 61 72 67 	movabs $0x202e656772616c20,%rax
  402630:	65 2e 20 
  402633:	48 89 43 18          	mov    %rax,0x18(%rbx)
  402637:	48 b8 49 6e 63 72 65 	movabs $0x6573616572636e49,%rax
  40263e:	61 73 65 
  402641:	48 89 43 20          	mov    %rax,0x20(%rbx)
  402645:	48 b8 20 53 55 42 4d 	movabs $0x5254494d42555320,%rax
  40264c:	49 54 52 
  40264f:	48 89 43 28          	mov    %rax,0x28(%rbx)
  402653:	48 b8 5f 4d 41 58 42 	movabs $0x46554258414d5f,%rax
  40265a:	55 46 00 
  40265d:	48 89 43 30          	mov    %rax,0x30(%rbx)
  402661:	89 ef                	mov    %ebp,%edi
  402663:	e8 c8 e6 ff ff       	callq  400d30 <close@plt>
  402668:	b8 ff ff ff ff       	mov    $0xffffffff,%eax
  40266d:	e9 9e 04 00 00       	jmpq   402b10 <submitr+0x746>
  402672:	48 8d b4 24 40 40 00 	lea    0x4040(%rsp),%rsi
  402679:	00 
  40267a:	b9 00 04 00 00       	mov    $0x400,%ecx
  40267f:	b8 00 00 00 00       	mov    $0x0,%eax
  402684:	48 89 f7             	mov    %rsi,%rdi
  402687:	f3 48 ab             	rep stos %rax,%es:(%rdi)
  40268a:	4c 89 ef             	mov    %r13,%rdi
  40268d:	e8 2b fc ff ff       	callq  4022bd <urlencode>
  402692:	85 c0                	test   %eax,%eax
  402694:	0f 89 8a 00 00 00    	jns    402724 <submitr+0x35a>
  40269a:	48 b8 45 72 72 6f 72 	movabs $0x52203a726f727245,%rax
  4026a1:	3a 20 52 
  4026a4:	48 89 03             	mov    %rax,(%rbx)
  4026a7:	48 b8 65 73 75 6c 74 	movabs $0x747320746c757365,%rax
  4026ae:	20 73 74 
  4026b1:	48 89 43 08          	mov    %rax,0x8(%rbx)
  4026b5:	48 b8 72 69 6e 67 20 	movabs $0x6e6f6320676e6972,%rax
  4026bc:	63 6f 6e 
  4026bf:	48 89 43 10          	mov    %rax,0x10(%rbx)
  4026c3:	48 b8 74 61 69 6e 73 	movabs $0x6e6120736e696174,%rax
  4026ca:	20 61 6e 
  4026cd:	48 89 43 18          	mov    %rax,0x18(%rbx)
  4026d1:	48 b8 20 69 6c 6c 65 	movabs $0x6c6167656c6c6920,%rax
  4026d8:	67 61 6c 
  4026db:	48 89 43 20          	mov    %rax,0x20(%rbx)
  4026df:	48 b8 20 6f 72 20 75 	movabs $0x72706e7520726f20,%rax
  4026e6:	6e 70 72 
  4026e9:	48 89 43 28          	mov    %rax,0x28(%rbx)
  4026ed:	48 b8 69 6e 74 61 62 	movabs $0x20656c6261746e69,%rax
  4026f4:	6c 65 20 
  4026f7:	48 89 43 30          	mov    %rax,0x30(%rbx)
  4026fb:	48 b8 63 68 61 72 61 	movabs $0x6574636172616863,%rax
  402702:	63 74 65 
  402705:	48 89 43 38          	mov    %rax,0x38(%rbx)
  402709:	66 c7 43 40 72 2e    	movw   $0x2e72,0x40(%rbx)
  40270f:	c6 43 42 00          	movb   $0x0,0x42(%rbx)
  402713:	89 ef                	mov    %ebp,%edi
  402715:	e8 16 e6 ff ff       	callq  400d30 <close@plt>
  40271a:	b8 ff ff ff ff       	mov    $0xffffffff,%eax
  40271f:	e9 ec 03 00 00       	jmpq   402b10 <submitr+0x746>
  402724:	4c 8d ac 24 40 20 00 	lea    0x2040(%rsp),%r13
  40272b:	00 
  40272c:	41 54                	push   %r12
  40272e:	48 8d 84 24 48 40 00 	lea    0x4048(%rsp),%rax
  402735:	00 
  402736:	50                   	push   %rax
  402737:	4d 89 f9             	mov    %r15,%r9
  40273a:	4d 89 f0             	mov    %r14,%r8
  40273d:	b9 98 36 40 00       	mov    $0x403698,%ecx
  402742:	ba 00 20 00 00       	mov    $0x2000,%edx
  402747:	be 01 00 00 00       	mov    $0x1,%esi
  40274c:	4c 89 ef             	mov    %r13,%rdi
  40274f:	b8 00 00 00 00       	mov    $0x0,%eax
  402754:	e8 27 e7 ff ff       	callq  400e80 <__sprintf_chk@plt>
  402759:	b8 00 00 00 00       	mov    $0x0,%eax
  40275e:	48 c7 c1 ff ff ff ff 	mov    $0xffffffffffffffff,%rcx
  402765:	4c 89 ef             	mov    %r13,%rdi
  402768:	f2 ae                	repnz scas %es:(%rdi),%al
  40276a:	48 f7 d1             	not    %rcx
  40276d:	48 8d 51 ff          	lea    -0x1(%rcx),%rdx
  402771:	4c 89 ee             	mov    %r13,%rsi
  402774:	89 ef                	mov    %ebp,%edi
  402776:	e8 b1 f9 ff ff       	callq  40212c <rio_writen>
  40277b:	48 83 c4 10          	add    $0x10,%rsp
  40277f:	48 85 c0             	test   %rax,%rax
  402782:	79 6e                	jns    4027f2 <submitr+0x428>
  402784:	48 b8 45 72 72 6f 72 	movabs $0x43203a726f727245,%rax
  40278b:	3a 20 43 
  40278e:	48 89 03             	mov    %rax,(%rbx)
  402791:	48 b8 6c 69 65 6e 74 	movabs $0x6e7520746e65696c,%rax
  402798:	20 75 6e 
  40279b:	48 89 43 08          	mov    %rax,0x8(%rbx)
  40279f:	48 b8 61 62 6c 65 20 	movabs $0x206f7420656c6261,%rax
  4027a6:	74 6f 20 
  4027a9:	48 89 43 10          	mov    %rax,0x10(%rbx)
  4027ad:	48 b8 77 72 69 74 65 	movabs $0x6f74206574697277,%rax
  4027b4:	20 74 6f 
  4027b7:	48 89 43 18          	mov    %rax,0x18(%rbx)
  4027bb:	48 b8 20 74 68 65 20 	movabs $0x7365722065687420,%rax
  4027c2:	72 65 73 
  4027c5:	48 89 43 20          	mov    %rax,0x20(%rbx)
  4027c9:	48 b8 75 6c 74 20 73 	movabs $0x7672657320746c75,%rax
  4027d0:	65 72 76 
  4027d3:	48 89 43 28          	mov    %rax,0x28(%rbx)
  4027d7:	66 c7 43 30 65 72    	movw   $0x7265,0x30(%rbx)
  4027dd:	c6 43 32 00          	movb   $0x0,0x32(%rbx)
  4027e1:	89 ef                	mov    %ebp,%edi
  4027e3:	e8 48 e5 ff ff       	callq  400d30 <close@plt>
  4027e8:	b8 ff ff ff ff       	mov    $0xffffffff,%eax
  4027ed:	e9 1e 03 00 00       	jmpq   402b10 <submitr+0x746>
  4027f2:	89 ee                	mov    %ebp,%esi
  4027f4:	48 8d 7c 24 30       	lea    0x30(%rsp),%rdi
  4027f9:	e8 ee f8 ff ff       	callq  4020ec <rio_readinitb>
  4027fe:	ba 00 20 00 00       	mov    $0x2000,%edx
  402803:	48 8d b4 24 40 20 00 	lea    0x2040(%rsp),%rsi
  40280a:	00 
  40280b:	48 8d 7c 24 30       	lea    0x30(%rsp),%rdi
  402810:	e8 fe f9 ff ff       	callq  402213 <rio_readlineb>
  402815:	48 85 c0             	test   %rax,%rax
  402818:	7f 7d                	jg     402897 <submitr+0x4cd>
  40281a:	48 b8 45 72 72 6f 72 	movabs $0x43203a726f727245,%rax
  402821:	3a 20 43 
  402824:	48 89 03             	mov    %rax,(%rbx)
  402827:	48 b8 6c 69 65 6e 74 	movabs $0x6e7520746e65696c,%rax
  40282e:	20 75 6e 
  402831:	48 89 43 08          	mov    %rax,0x8(%rbx)
  402835:	48 b8 61 62 6c 65 20 	movabs $0x206f7420656c6261,%rax
  40283c:	74 6f 20 
  40283f:	48 89 43 10          	mov    %rax,0x10(%rbx)
  402843:	48 b8 72 65 61 64 20 	movabs $0x7269662064616572,%rax
  40284a:	66 69 72 
  40284d:	48 89 43 18          	mov    %rax,0x18(%rbx)
  402851:	48 b8 73 74 20 68 65 	movabs $0x6564616568207473,%rax
  402858:	61 64 65 
  40285b:	48 89 43 20          	mov    %rax,0x20(%rbx)
  40285f:	48 b8 72 20 66 72 6f 	movabs $0x72206d6f72662072,%rax
  402866:	6d 20 72 
  402869:	48 89 43 28          	mov    %rax,0x28(%rbx)
  40286d:	48 b8 65 73 75 6c 74 	movabs $0x657320746c757365,%rax
  402874:	20 73 65 
  402877:	48 89 43 30          	mov    %rax,0x30(%rbx)
  40287b:	c7 43 38 72 76 65 72 	movl   $0x72657672,0x38(%rbx)
  402882:	c6 43 3c 00          	movb   $0x0,0x3c(%rbx)
  402886:	89 ef                	mov    %ebp,%edi
  402888:	e8 a3 e4 ff ff       	callq  400d30 <close@plt>
  40288d:	b8 ff ff ff ff       	mov    $0xffffffff,%eax
  402892:	e9 79 02 00 00       	jmpq   402b10 <submitr+0x746>
  402897:	4c 8d 84 24 40 80 00 	lea    0x8040(%rsp),%r8
  40289e:	00 
  40289f:	48 8d 4c 24 1c       	lea    0x1c(%rsp),%rcx
  4028a4:	48 8d 94 24 40 60 00 	lea    0x6040(%rsp),%rdx
  4028ab:	00 
  4028ac:	be 0f 37 40 00       	mov    $0x40370f,%esi
  4028b1:	48 8d bc 24 40 20 00 	lea    0x2040(%rsp),%rdi
  4028b8:	00 
  4028b9:	b8 00 00 00 00       	mov    $0x0,%eax
  4028be:	e8 1d e5 ff ff       	callq  400de0 <__isoc99_sscanf@plt>
  4028c3:	e9 95 00 00 00       	jmpq   40295d <submitr+0x593>
  4028c8:	ba 00 20 00 00       	mov    $0x2000,%edx
  4028cd:	48 8d b4 24 40 20 00 	lea    0x2040(%rsp),%rsi
  4028d4:	00 
  4028d5:	48 8d 7c 24 30       	lea    0x30(%rsp),%rdi
  4028da:	e8 34 f9 ff ff       	callq  402213 <rio_readlineb>
  4028df:	48 85 c0             	test   %rax,%rax
  4028e2:	7f 79                	jg     40295d <submitr+0x593>
  4028e4:	48 b8 45 72 72 6f 72 	movabs $0x43203a726f727245,%rax
  4028eb:	3a 20 43 
  4028ee:	48 89 03             	mov    %rax,(%rbx)
  4028f1:	48 b8 6c 69 65 6e 74 	movabs $0x6e7520746e65696c,%rax
  4028f8:	20 75 6e 
  4028fb:	48 89 43 08          	mov    %rax,0x8(%rbx)
  4028ff:	48 b8 61 62 6c 65 20 	movabs $0x206f7420656c6261,%rax
  402906:	74 6f 20 
  402909:	48 89 43 10          	mov    %rax,0x10(%rbx)
  40290d:	48 b8 72 65 61 64 20 	movabs $0x6165682064616572,%rax
  402914:	68 65 61 
  402917:	48 89 43 18          	mov    %rax,0x18(%rbx)
  40291b:	48 b8 64 65 72 73 20 	movabs $0x6f72662073726564,%rax
  402922:	66 72 6f 
  402925:	48 89 43 20          	mov    %rax,0x20(%rbx)
  402929:	48 b8 6d 20 74 68 65 	movabs $0x657220656874206d,%rax
  402930:	20 72 65 
  402933:	48 89 43 28          	mov    %rax,0x28(%rbx)
  402937:	48 b8 73 75 6c 74 20 	movabs $0x72657320746c7573,%rax
  40293e:	73 65 72 
  402941:	48 89 43 30          	mov    %rax,0x30(%rbx)
  402945:	c7 43 38 76 65 72 00 	movl   $0x726576,0x38(%rbx)
  40294c:	89 ef                	mov    %ebp,%edi
  40294e:	e8 dd e3 ff ff       	callq  400d30 <close@plt>
  402953:	b8 ff ff ff ff       	mov    $0xffffffff,%eax
  402958:	e9 b3 01 00 00       	jmpq   402b10 <submitr+0x746>
  40295d:	0f b6 94 24 40 20 00 	movzbl 0x2040(%rsp),%edx
  402964:	00 
  402965:	b8 0d 00 00 00       	mov    $0xd,%eax
  40296a:	29 d0                	sub    %edx,%eax
  40296c:	75 1b                	jne    402989 <submitr+0x5bf>
  40296e:	0f b6 94 24 41 20 00 	movzbl 0x2041(%rsp),%edx
  402975:	00 
  402976:	b8 0a 00 00 00       	mov    $0xa,%eax
  40297b:	29 d0                	sub    %edx,%eax
  40297d:	75 0a                	jne    402989 <submitr+0x5bf>
  40297f:	0f b6 84 24 42 20 00 	movzbl 0x2042(%rsp),%eax
  402986:	00 
  402987:	f7 d8                	neg    %eax
  402989:	85 c0                	test   %eax,%eax
  40298b:	0f 85 37 ff ff ff    	jne    4028c8 <submitr+0x4fe>
  402991:	ba 00 20 00 00       	mov    $0x2000,%edx
  402996:	48 8d b4 24 40 20 00 	lea    0x2040(%rsp),%rsi
  40299d:	00 
  40299e:	48 8d 7c 24 30       	lea    0x30(%rsp),%rdi
  4029a3:	e8 6b f8 ff ff       	callq  402213 <rio_readlineb>
  4029a8:	48 85 c0             	test   %rax,%rax
  4029ab:	0f 8f 83 00 00 00    	jg     402a34 <submitr+0x66a>
  4029b1:	48 b8 45 72 72 6f 72 	movabs $0x43203a726f727245,%rax
  4029b8:	3a 20 43 
  4029bb:	48 89 03             	mov    %rax,(%rbx)
  4029be:	48 b8 6c 69 65 6e 74 	movabs $0x6e7520746e65696c,%rax
  4029c5:	20 75 6e 
  4029c8:	48 89 43 08          	mov    %rax,0x8(%rbx)
  4029cc:	48 b8 61 62 6c 65 20 	movabs $0x206f7420656c6261,%rax
  4029d3:	74 6f 20 
  4029d6:	48 89 43 10          	mov    %rax,0x10(%rbx)
  4029da:	48 b8 72 65 61 64 20 	movabs $0x6174732064616572,%rax
  4029e1:	73 74 61 
  4029e4:	48 89 43 18          	mov    %rax,0x18(%rbx)
  4029e8:	48 b8 74 75 73 20 6d 	movabs $0x7373656d20737574,%rax
  4029ef:	65 73 73 
  4029f2:	48 89 43 20          	mov    %rax,0x20(%rbx)
  4029f6:	48 b8 61 67 65 20 66 	movabs $0x6d6f726620656761,%rax
  4029fd:	72 6f 6d 
  402a00:	48 89 43 28          	mov    %rax,0x28(%rbx)
  402a04:	48 b8 20 72 65 73 75 	movabs $0x20746c7573657220,%rax
  402a0b:	6c 74 20 
  402a0e:	48 89 43 30          	mov    %rax,0x30(%rbx)
  402a12:	c7 43 38 73 65 72 76 	movl   $0x76726573,0x38(%rbx)
  402a19:	66 c7 43 3c 65 72    	movw   $0x7265,0x3c(%rbx)
  402a1f:	c6 43 3e 00          	movb   $0x0,0x3e(%rbx)
  402a23:	89 ef                	mov    %ebp,%edi
  402a25:	e8 06 e3 ff ff       	callq  400d30 <close@plt>
  402a2a:	b8 ff ff ff ff       	mov    $0xffffffff,%eax
  402a2f:	e9 dc 00 00 00       	jmpq   402b10 <submitr+0x746>
  402a34:	44 8b 44 24 1c       	mov    0x1c(%rsp),%r8d
  402a39:	41 81 f8 c8 00 00 00 	cmp    $0xc8,%r8d
  402a40:	74 37                	je     402a79 <submitr+0x6af>
  402a42:	4c 8d 8c 24 40 80 00 	lea    0x8040(%rsp),%r9
  402a49:	00 
  402a4a:	b9 d8 36 40 00       	mov    $0x4036d8,%ecx
  402a4f:	48 c7 c2 ff ff ff ff 	mov    $0xffffffffffffffff,%rdx
  402a56:	be 01 00 00 00       	mov    $0x1,%esi
  402a5b:	48 89 df             	mov    %rbx,%rdi
  402a5e:	b8 00 00 00 00       	mov    $0x0,%eax
  402a63:	e8 18 e4 ff ff       	callq  400e80 <__sprintf_chk@plt>
  402a68:	89 ef                	mov    %ebp,%edi
  402a6a:	e8 c1 e2 ff ff       	callq  400d30 <close@plt>
  402a6f:	b8 ff ff ff ff       	mov    $0xffffffff,%eax
  402a74:	e9 97 00 00 00       	jmpq   402b10 <submitr+0x746>
  402a79:	48 8d b4 24 40 20 00 	lea    0x2040(%rsp),%rsi
  402a80:	00 
  402a81:	48 89 df             	mov    %rbx,%rdi
  402a84:	e8 37 e2 ff ff       	callq  400cc0 <strcpy@plt>
  402a89:	89 ef                	mov    %ebp,%edi
  402a8b:	e8 a0 e2 ff ff       	callq  400d30 <close@plt>
  402a90:	0f b6 03             	movzbl (%rbx),%eax
  402a93:	ba 4f 00 00 00       	mov    $0x4f,%edx
  402a98:	29 c2                	sub    %eax,%edx
  402a9a:	75 22                	jne    402abe <submitr+0x6f4>
  402a9c:	0f b6 4b 01          	movzbl 0x1(%rbx),%ecx
  402aa0:	b8 4b 00 00 00       	mov    $0x4b,%eax
  402aa5:	29 c8                	sub    %ecx,%eax
  402aa7:	75 17                	jne    402ac0 <submitr+0x6f6>
  402aa9:	0f b6 4b 02          	movzbl 0x2(%rbx),%ecx
  402aad:	b8 0a 00 00 00       	mov    $0xa,%eax
  402ab2:	29 c8                	sub    %ecx,%eax
  402ab4:	75 0a                	jne    402ac0 <submitr+0x6f6>
  402ab6:	0f b6 43 03          	movzbl 0x3(%rbx),%eax
  402aba:	f7 d8                	neg    %eax
  402abc:	eb 02                	jmp    402ac0 <submitr+0x6f6>
  402abe:	89 d0                	mov    %edx,%eax
  402ac0:	85 c0                	test   %eax,%eax
  402ac2:	74 40                	je     402b04 <submitr+0x73a>
  402ac4:	bf 20 37 40 00       	mov    $0x403720,%edi
  402ac9:	b9 05 00 00 00       	mov    $0x5,%ecx
  402ace:	48 89 de             	mov    %rbx,%rsi
  402ad1:	f3 a6                	repz cmpsb %es:(%rdi),%ds:(%rsi)
  402ad3:	0f 97 c0             	seta   %al
  402ad6:	0f 92 c1             	setb   %cl
  402ad9:	29 c8                	sub    %ecx,%eax
  402adb:	0f be c0             	movsbl %al,%eax
  402ade:	85 c0                	test   %eax,%eax
  402ae0:	74 2e                	je     402b10 <submitr+0x746>
  402ae2:	85 d2                	test   %edx,%edx
  402ae4:	75 13                	jne    402af9 <submitr+0x72f>
  402ae6:	0f b6 43 01          	movzbl 0x1(%rbx),%eax
  402aea:	ba 4b 00 00 00       	mov    $0x4b,%edx
  402aef:	29 c2                	sub    %eax,%edx
  402af1:	75 06                	jne    402af9 <submitr+0x72f>
  402af3:	0f b6 53 02          	movzbl 0x2(%rbx),%edx
  402af7:	f7 da                	neg    %edx
  402af9:	85 d2                	test   %edx,%edx
  402afb:	75 0e                	jne    402b0b <submitr+0x741>
  402afd:	b8 00 00 00 00       	mov    $0x0,%eax
  402b02:	eb 0c                	jmp    402b10 <submitr+0x746>
  402b04:	b8 00 00 00 00       	mov    $0x0,%eax
  402b09:	eb 05                	jmp    402b10 <submitr+0x746>
  402b0b:	b8 ff ff ff ff       	mov    $0xffffffff,%eax
  402b10:	48 8b 9c 24 48 a0 00 	mov    0xa048(%rsp),%rbx
  402b17:	00 
  402b18:	64 48 33 1c 25 28 00 	xor    %fs:0x28,%rbx
  402b1f:	00 00 
  402b21:	74 05                	je     402b28 <submitr+0x75e>
  402b23:	e8 c8 e1 ff ff       	callq  400cf0 <__stack_chk_fail@plt>
  402b28:	48 81 c4 58 a0 00 00 	add    $0xa058,%rsp
  402b2f:	5b                   	pop    %rbx
  402b30:	5d                   	pop    %rbp
  402b31:	41 5c                	pop    %r12
  402b33:	41 5d                	pop    %r13
  402b35:	41 5e                	pop    %r14
  402b37:	41 5f                	pop    %r15
  402b39:	c3                   	retq   

0000000000402b3a <init_timeout>:
  402b3a:	85 ff                	test   %edi,%edi
  402b3c:	74 23                	je     402b61 <init_timeout+0x27>
  402b3e:	53                   	push   %rbx
  402b3f:	89 fb                	mov    %edi,%ebx
  402b41:	85 ff                	test   %edi,%edi
  402b43:	79 05                	jns    402b4a <init_timeout+0x10>
  402b45:	bb 00 00 00 00       	mov    $0x0,%ebx
  402b4a:	be fe 20 40 00       	mov    $0x4020fe,%esi
  402b4f:	bf 0e 00 00 00       	mov    $0xe,%edi
  402b54:	e8 07 e2 ff ff       	callq  400d60 <signal@plt>
  402b59:	89 df                	mov    %ebx,%edi
  402b5b:	e8 c0 e1 ff ff       	callq  400d20 <alarm@plt>
  402b60:	5b                   	pop    %rbx
  402b61:	f3 c3                	repz retq 

0000000000402b63 <init_driver>:
  402b63:	55                   	push   %rbp
  402b64:	53                   	push   %rbx
  402b65:	48 83 ec 28          	sub    $0x28,%rsp
  402b69:	48 89 fd             	mov    %rdi,%rbp
  402b6c:	64 48 8b 04 25 28 00 	mov    %fs:0x28,%rax
  402b73:	00 00 
  402b75:	48 89 44 24 18       	mov    %rax,0x18(%rsp)
  402b7a:	31 c0                	xor    %eax,%eax
  402b7c:	be 01 00 00 00       	mov    $0x1,%esi
  402b81:	bf 0d 00 00 00       	mov    $0xd,%edi
  402b86:	e8 d5 e1 ff ff       	callq  400d60 <signal@plt>
  402b8b:	be 01 00 00 00       	mov    $0x1,%esi
  402b90:	bf 1d 00 00 00       	mov    $0x1d,%edi
  402b95:	e8 c6 e1 ff ff       	callq  400d60 <signal@plt>
  402b9a:	be 01 00 00 00       	mov    $0x1,%esi
  402b9f:	bf 1d 00 00 00       	mov    $0x1d,%edi
  402ba4:	e8 b7 e1 ff ff       	callq  400d60 <signal@plt>
  402ba9:	ba 00 00 00 00       	mov    $0x0,%edx
  402bae:	be 01 00 00 00       	mov    $0x1,%esi
  402bb3:	bf 02 00 00 00       	mov    $0x2,%edi
  402bb8:	e8 d3 e2 ff ff       	callq  400e90 <socket@plt>
  402bbd:	85 c0                	test   %eax,%eax
  402bbf:	79 4f                	jns    402c10 <init_driver+0xad>
  402bc1:	48 b8 45 72 72 6f 72 	movabs $0x43203a726f727245,%rax
  402bc8:	3a 20 43 
  402bcb:	48 89 45 00          	mov    %rax,0x0(%rbp)
  402bcf:	48 b8 6c 69 65 6e 74 	movabs $0x6e7520746e65696c,%rax
  402bd6:	20 75 6e 
  402bd9:	48 89 45 08          	mov    %rax,0x8(%rbp)
  402bdd:	48 b8 61 62 6c 65 20 	movabs $0x206f7420656c6261,%rax
  402be4:	74 6f 20 
  402be7:	48 89 45 10          	mov    %rax,0x10(%rbp)
  402beb:	48 b8 63 72 65 61 74 	movabs $0x7320657461657263,%rax
  402bf2:	65 20 73 
  402bf5:	48 89 45 18          	mov    %rax,0x18(%rbp)
  402bf9:	c7 45 20 6f 63 6b 65 	movl   $0x656b636f,0x20(%rbp)
  402c00:	66 c7 45 24 74 00    	movw   $0x74,0x24(%rbp)
  402c06:	b8 ff ff ff ff       	mov    $0xffffffff,%eax
  402c0b:	e9 2a 01 00 00       	jmpq   402d3a <init_driver+0x1d7>
  402c10:	89 c3                	mov    %eax,%ebx
  402c12:	bf 39 32 40 00       	mov    $0x403239,%edi
  402c17:	e8 54 e1 ff ff       	callq  400d70 <gethostbyname@plt>
  402c1c:	48 85 c0             	test   %rax,%rax
  402c1f:	75 68                	jne    402c89 <init_driver+0x126>
  402c21:	48 b8 45 72 72 6f 72 	movabs $0x44203a726f727245,%rax
  402c28:	3a 20 44 
  402c2b:	48 89 45 00          	mov    %rax,0x0(%rbp)
  402c2f:	48 b8 4e 53 20 69 73 	movabs $0x6e7520736920534e,%rax
  402c36:	20 75 6e 
  402c39:	48 89 45 08          	mov    %rax,0x8(%rbp)
  402c3d:	48 b8 61 62 6c 65 20 	movabs $0x206f7420656c6261,%rax
  402c44:	74 6f 20 
  402c47:	48 89 45 10          	mov    %rax,0x10(%rbp)
  402c4b:	48 b8 72 65 73 6f 6c 	movabs $0x2065766c6f736572,%rax
  402c52:	76 65 20 
  402c55:	48 89 45 18          	mov    %rax,0x18(%rbp)
  402c59:	48 b8 73 65 72 76 65 	movabs $0x6120726576726573,%rax
  402c60:	72 20 61 
  402c63:	48 89 45 20          	mov    %rax,0x20(%rbp)
  402c67:	c7 45 28 64 64 72 65 	movl   $0x65726464,0x28(%rbp)
  402c6e:	66 c7 45 2c 73 73    	movw   $0x7373,0x2c(%rbp)
  402c74:	c6 45 2e 00          	movb   $0x0,0x2e(%rbp)
  402c78:	89 df                	mov    %ebx,%edi
  402c7a:	e8 b1 e0 ff ff       	callq  400d30 <close@plt>
  402c7f:	b8 ff ff ff ff       	mov    $0xffffffff,%eax
  402c84:	e9 b1 00 00 00       	jmpq   402d3a <init_driver+0x1d7>
  402c89:	48 c7 04 24 00 00 00 	movq   $0x0,(%rsp)
  402c90:	00 
  402c91:	48 c7 44 24 08 00 00 	movq   $0x0,0x8(%rsp)
  402c98:	00 00 
  402c9a:	66 c7 04 24 02 00    	movw   $0x2,(%rsp)
  402ca0:	48 63 50 14          	movslq 0x14(%rax),%rdx
  402ca4:	48 8b 40 18          	mov    0x18(%rax),%rax
  402ca8:	48 8b 30             	mov    (%rax),%rsi
  402cab:	48 8d 7c 24 04       	lea    0x4(%rsp),%rdi
  402cb0:	b9 0c 00 00 00       	mov    $0xc,%ecx
  402cb5:	e8 c6 e0 ff ff       	callq  400d80 <__memmove_chk@plt>
  402cba:	66 c7 44 24 02 3c 9a 	movw   $0x9a3c,0x2(%rsp)
  402cc1:	ba 10 00 00 00       	mov    $0x10,%edx
  402cc6:	48 89 e6             	mov    %rsp,%rsi
  402cc9:	89 df                	mov    %ebx,%edi
  402ccb:	e8 90 e1 ff ff       	callq  400e60 <connect@plt>
  402cd0:	85 c0                	test   %eax,%eax
  402cd2:	79 50                	jns    402d24 <init_driver+0x1c1>
  402cd4:	48 b8 45 72 72 6f 72 	movabs $0x55203a726f727245,%rax
  402cdb:	3a 20 55 
  402cde:	48 89 45 00          	mov    %rax,0x0(%rbp)
  402ce2:	48 b8 6e 61 62 6c 65 	movabs $0x6f7420656c62616e,%rax
  402ce9:	20 74 6f 
  402cec:	48 89 45 08          	mov    %rax,0x8(%rbp)
  402cf0:	48 b8 20 63 6f 6e 6e 	movabs $0x7463656e6e6f6320,%rax
  402cf7:	65 63 74 
  402cfa:	48 89 45 10          	mov    %rax,0x10(%rbp)
  402cfe:	48 b8 20 74 6f 20 73 	movabs $0x76726573206f7420,%rax
  402d05:	65 72 76 
  402d08:	48 89 45 18          	mov    %rax,0x18(%rbp)
  402d0c:	66 c7 45 20 65 72    	movw   $0x7265,0x20(%rbp)
  402d12:	c6 45 22 00          	movb   $0x0,0x22(%rbp)
  402d16:	89 df                	mov    %ebx,%edi
  402d18:	e8 13 e0 ff ff       	callq  400d30 <close@plt>
  402d1d:	b8 ff ff ff ff       	mov    $0xffffffff,%eax
  402d22:	eb 16                	jmp    402d3a <init_driver+0x1d7>
  402d24:	89 df                	mov    %ebx,%edi
  402d26:	e8 05 e0 ff ff       	callq  400d30 <close@plt>
  402d2b:	66 c7 45 00 4f 4b    	movw   $0x4b4f,0x0(%rbp)
  402d31:	c6 45 02 00          	movb   $0x0,0x2(%rbp)
  402d35:	b8 00 00 00 00       	mov    $0x0,%eax
  402d3a:	48 8b 4c 24 18       	mov    0x18(%rsp),%rcx
  402d3f:	64 48 33 0c 25 28 00 	xor    %fs:0x28,%rcx
  402d46:	00 00 
  402d48:	74 05                	je     402d4f <init_driver+0x1ec>
  402d4a:	e8 a1 df ff ff       	callq  400cf0 <__stack_chk_fail@plt>
  402d4f:	48 83 c4 28          	add    $0x28,%rsp
  402d53:	5b                   	pop    %rbx
  402d54:	5d                   	pop    %rbp
  402d55:	c3                   	retq   

0000000000402d56 <driver_post>:
  402d56:	53                   	push   %rbx
  402d57:	4c 89 cb             	mov    %r9,%rbx
  402d5a:	45 85 c0             	test   %r8d,%r8d
  402d5d:	74 27                	je     402d86 <driver_post+0x30>
  402d5f:	48 89 ca             	mov    %rcx,%rdx
  402d62:	be 25 37 40 00       	mov    $0x403725,%esi
  402d67:	bf 01 00 00 00       	mov    $0x1,%edi
  402d6c:	b8 00 00 00 00       	mov    $0x0,%eax
  402d71:	e8 8a e0 ff ff       	callq  400e00 <__printf_chk@plt>
  402d76:	66 c7 03 4f 4b       	movw   $0x4b4f,(%rbx)
  402d7b:	c6 43 02 00          	movb   $0x0,0x2(%rbx)
  402d7f:	b8 00 00 00 00       	mov    $0x0,%eax
  402d84:	eb 3f                	jmp    402dc5 <driver_post+0x6f>
  402d86:	48 85 ff             	test   %rdi,%rdi
  402d89:	74 2c                	je     402db7 <driver_post+0x61>
  402d8b:	80 3f 00             	cmpb   $0x0,(%rdi)
  402d8e:	74 27                	je     402db7 <driver_post+0x61>
  402d90:	48 83 ec 08          	sub    $0x8,%rsp
  402d94:	41 51                	push   %r9
  402d96:	49 89 c9             	mov    %rcx,%r9
  402d99:	49 89 d0             	mov    %rdx,%r8
  402d9c:	48 89 f9             	mov    %rdi,%rcx
  402d9f:	48 89 f2             	mov    %rsi,%rdx
  402da2:	be 9a 3c 00 00       	mov    $0x3c9a,%esi
  402da7:	bf 39 32 40 00       	mov    $0x403239,%edi
  402dac:	e8 19 f6 ff ff       	callq  4023ca <submitr>
  402db1:	48 83 c4 10          	add    $0x10,%rsp
  402db5:	eb 0e                	jmp    402dc5 <driver_post+0x6f>
  402db7:	66 c7 03 4f 4b       	movw   $0x4b4f,(%rbx)
  402dbc:	c6 43 02 00          	movb   $0x0,0x2(%rbx)
  402dc0:	b8 00 00 00 00       	mov    $0x0,%eax
  402dc5:	5b                   	pop    %rbx
  402dc6:	c3                   	retq   

0000000000402dc7 <check>:
  402dc7:	89 f8                	mov    %edi,%eax
  402dc9:	c1 e8 1c             	shr    $0x1c,%eax
  402dcc:	85 c0                	test   %eax,%eax
  402dce:	74 1d                	je     402ded <check+0x26>
  402dd0:	b9 00 00 00 00       	mov    $0x0,%ecx
  402dd5:	eb 0b                	jmp    402de2 <check+0x1b>
  402dd7:	89 f8                	mov    %edi,%eax
  402dd9:	d3 e8                	shr    %cl,%eax
  402ddb:	3c 0a                	cmp    $0xa,%al
  402ddd:	74 14                	je     402df3 <check+0x2c>
  402ddf:	83 c1 08             	add    $0x8,%ecx
  402de2:	83 f9 1f             	cmp    $0x1f,%ecx
  402de5:	7e f0                	jle    402dd7 <check+0x10>
  402de7:	b8 01 00 00 00       	mov    $0x1,%eax
  402dec:	c3                   	retq   
  402ded:	b8 00 00 00 00       	mov    $0x0,%eax
  402df2:	c3                   	retq   
  402df3:	b8 00 00 00 00       	mov    $0x0,%eax
  402df8:	c3                   	retq   

0000000000402df9 <gencookie>:
  402df9:	53                   	push   %rbx
  402dfa:	83 c7 01             	add    $0x1,%edi
  402dfd:	e8 9e de ff ff       	callq  400ca0 <srandom@plt>
  402e02:	e8 b9 df ff ff       	callq  400dc0 <random@plt>
  402e07:	89 c3                	mov    %eax,%ebx
  402e09:	89 c7                	mov    %eax,%edi
  402e0b:	e8 b7 ff ff ff       	callq  402dc7 <check>
  402e10:	85 c0                	test   %eax,%eax
  402e12:	74 ee                	je     402e02 <gencookie+0x9>
  402e14:	89 d8                	mov    %ebx,%eax
  402e16:	5b                   	pop    %rbx
  402e17:	c3                   	retq   
  402e18:	0f 1f 84 00 00 00 00 	nopl   0x0(%rax,%rax,1)
  402e1f:	00 

0000000000402e20 <__libc_csu_init>:
  402e20:	41 57                	push   %r15
  402e22:	41 56                	push   %r14
  402e24:	41 89 ff             	mov    %edi,%r15d
  402e27:	41 55                	push   %r13
  402e29:	41 54                	push   %r12
  402e2b:	4c 8d 25 de 1f 20 00 	lea    0x201fde(%rip),%r12        # 604e10 <__frame_dummy_init_array_entry>
  402e32:	55                   	push   %rbp
  402e33:	48 8d 2d de 1f 20 00 	lea    0x201fde(%rip),%rbp        # 604e18 <__init_array_end>
  402e3a:	53                   	push   %rbx
  402e3b:	49 89 f6             	mov    %rsi,%r14
  402e3e:	49 89 d5             	mov    %rdx,%r13
  402e41:	4c 29 e5             	sub    %r12,%rbp
  402e44:	48 83 ec 08          	sub    $0x8,%rsp
  402e48:	48 c1 fd 03          	sar    $0x3,%rbp
  402e4c:	e8 f7 dd ff ff       	callq  400c48 <_init>
  402e51:	48 85 ed             	test   %rbp,%rbp
  402e54:	74 20                	je     402e76 <__libc_csu_init+0x56>
  402e56:	31 db                	xor    %ebx,%ebx
  402e58:	0f 1f 84 00 00 00 00 	nopl   0x0(%rax,%rax,1)
  402e5f:	00 
  402e60:	4c 89 ea             	mov    %r13,%rdx
  402e63:	4c 89 f6             	mov    %r14,%rsi
  402e66:	44 89 ff             	mov    %r15d,%edi
  402e69:	41 ff 14 dc          	callq  *(%r12,%rbx,8)
  402e6d:	48 83 c3 01          	add    $0x1,%rbx
  402e71:	48 39 eb             	cmp    %rbp,%rbx
  402e74:	75 ea                	jne    402e60 <__libc_csu_init+0x40>
  402e76:	48 83 c4 08          	add    $0x8,%rsp
  402e7a:	5b                   	pop    %rbx
  402e7b:	5d                   	pop    %rbp
  402e7c:	41 5c                	pop    %r12
  402e7e:	41 5d                	pop    %r13
  402e80:	41 5e                	pop    %r14
  402e82:	41 5f                	pop    %r15
  402e84:	c3                   	retq   
  402e85:	90                   	nop
  402e86:	66 2e 0f 1f 84 00 00 	nopw   %cs:0x0(%rax,%rax,1)
  402e8d:	00 00 00 

0000000000402e90 <__libc_csu_fini>:
  402e90:	f3 c3                	repz retq 

Disassembly of section .fini:

0000000000402e94 <_fini>:
  402e94:	48 83 ec 08          	sub    $0x8,%rsp
  402e98:	48 83 c4 08          	add    $0x8,%rsp
  402e9c:	c3                   	retq   
